	.file	"GameWorldTest.c"
	.text
.Ltext0:
	.cfi_sections	.debug_frame
	.file 1 "GameWorldTest/GameWorldTest.c"
	.p2align 4
	.def	printf;	.scl	3;	.type	32;	.endef
	.seh_proc	printf
printf:
.LVL0:
.LFB63:
	.file 2 "C:/mingw64/x86_64-w64-mingw32/include/stdio.h"
	.loc 2 369 1 view -0
	.cfi_startproc
	.loc 2 369 1 is_stmt 0 view .LVU1
	pushq	%rsi
	.seh_pushreg	%rsi
	.cfi_def_cfa_offset 16
	.cfi_offset 4, -16
	pushq	%rbx
	.seh_pushreg	%rbx
	.cfi_def_cfa_offset 24
	.cfi_offset 3, -24
	subq	$56, %rsp
	.seh_stackalloc	56
	.cfi_def_cfa_offset 80
	.seh_endprologue
	.loc 2 370 3 is_stmt 1 view .LVU2
	.loc 2 371 3 view .LVU3
	.loc 2 371 35 view .LVU4
	leaq	88(%rsp), %rsi
	.loc 2 369 1 is_stmt 0 view .LVU5
	movq	%rcx, %rbx
	movq	%rdx, 88(%rsp)
	.loc 2 372 14 view .LVU6
	movl	$1, %ecx
.LVL1:
	.loc 2 369 1 view .LVU7
	movq	%r8, 96(%rsp)
	movq	%r9, 104(%rsp)
	.loc 2 371 35 view .LVU8
	movq	%rsi, 40(%rsp)
	.loc 2 372 3 is_stmt 1 view .LVU9
	.loc 2 372 14 is_stmt 0 view .LVU10
	call	*__imp___acrt_iob_func(%rip)
.LVL2:
	movq	%rsi, %r8
	movq	%rbx, %rdx
	movq	%rax, %rcx
	call	__mingw_vfprintf
.LVL3:
	.loc 2 373 3 is_stmt 1 view .LVU11
	.loc 2 374 3 view .LVU12
	.loc 2 375 1 is_stmt 0 view .LVU13
	addq	$56, %rsp
	.cfi_def_cfa_offset 24
	popq	%rbx
	.cfi_restore 3
	.cfi_def_cfa_offset 16
.LVL4:
	.loc 2 375 1 view .LVU14
	popq	%rsi
	.cfi_restore 4
	.cfi_def_cfa_offset 8
	ret
	.cfi_endproc
.LFE63:
	.seh_endproc
	.p2align 4
	.globl	Subgen_Next
	.def	Subgen_Next;	.scl	2;	.type	32;	.endef
	.seh_proc	Subgen_Next
Subgen_Next:
.LVL5:
.LFB47:
	.file 3 "C:/Nikita/REPOS/Boids/C/Base/Subgen.h"
	.loc 3 15 1 is_stmt 1 view -0
	.cfi_startproc
	.loc 3 15 1 is_stmt 0 view .LVU16
	.seh_endprologue
	.loc 3 16 2 is_stmt 1 view .LVU17
	.loc 3 16 17 is_stmt 0 view .LVU18
	movl	$54, %r8d
	.loc 3 16 13 view .LVU19
	movl	220(%rcx), %edx
	.loc 3 17 13 view .LVU20
	movl	224(%rcx), %eax
	.loc 3 16 17 view .LVU21
	subl	$1, %edx
	cmovc	%r8d, %edx
	.loc 3 17 17 view .LVU22
	subl	$1, %eax
	cmovc	%r8d, %eax
	movl	%edx, 220(%rcx)
	.loc 3 17 2 is_stmt 1 view .LVU23
	.loc 3 18 26 is_stmt 0 view .LVU24
	movslq	%edx, %rdx
	.loc 3 18 54 view .LVU25
	movslq	%eax, %r8
	movl	%eax, 224(%rcx)
	.loc 3 18 5 is_stmt 1 view .LVU26
	.loc 3 18 9 is_stmt 0 view .LVU27
	movl	(%rcx,%rdx,4), %eax
	subl	(%rcx,%r8,4), %eax
.LVL6:
	.loc 3 19 2 is_stmt 1 view .LVU28
	.loc 3 19 15 is_stmt 0 view .LVU29
	leal	1000000000(%rax), %r8d
	cmovs	%r8d, %eax
.LVL7:
	.loc 3 20 2 is_stmt 1 view .LVU30
	.loc 3 20 35 is_stmt 0 view .LVU31
	movl	%eax, (%rcx,%rdx,4)
	.loc 3 21 1 view .LVU32
	ret
	.cfi_endproc
.LFE47:
	.seh_endproc
	.p2align 4
	.globl	Subgen_Init
	.def	Subgen_Init;	.scl	2;	.type	32;	.endef
	.seh_proc	Subgen_Init
Subgen_Init:
.LVL8:
.LFB48:
	.loc 3 23 1 is_stmt 1 view -0
	.cfi_startproc
	.loc 3 23 1 is_stmt 0 view .LVU34
	pushq	%rsi
	.seh_pushreg	%rsi
	.cfi_def_cfa_offset 16
	.cfi_offset 4, -16
	pushq	%rbx
	.seh_pushreg	%rbx
	.cfi_def_cfa_offset 24
	.cfi_offset 3, -24
	subq	$280, %rsp
	.seh_stackalloc	280
	.cfi_def_cfa_offset 304
	.seh_endprologue
	.loc 3 24 5 is_stmt 1 view .LVU35
	.loc 3 26 5 view .LVU36
	.loc 3 27 5 view .LVU37
	.loc 3 28 5 view .LVU38
	.loc 3 31 18 is_stmt 0 view .LVU39
	movl	$54, %r8d
	.loc 3 23 1 view .LVU40
	movslq	%edx, %rax
	.loc 3 30 5 is_stmt 1 view .LVU41
.LVL9:
	.loc 3 31 2 view .LVU42
	.loc 3 23 1 is_stmt 0 view .LVU43
	movq	%rcx, %r10
	.loc 3 30 9 view .LVU44
	movl	$1, %ecx
.LVL10:
	.loc 3 23 1 view .LVU45
	movq	%rax, %rbx
	.loc 3 31 25 view .LVU46
	imulq	$1152921505, %rax, %rax
	movl	%ebx, %edx
.LVL11:
	.loc 3 31 18 view .LVU47
	movl	%ebx, %r9d
	.loc 3 31 25 view .LVU48
	sarl	$31, %edx
	sarq	$60, %rax
	subl	%edx, %eax
	movl	%ebx, %edx
	imull	$1000000000, %eax, %eax
	subl	%eax, %edx
	movl	%edx, 32(%rsp)
	.loc 3 32 2 is_stmt 1 view .LVU49
.LBB148:
	.loc 3 32 7 view .LVU50
.LVL12:
	.loc 3 32 28 view .LVU51
	.loc 3 34 3 view .LVU52
	.loc 3 32 18 is_stmt 0 view .LVU53
	movl	$21, %edx
	jmp	.L10
.LVL13:
	.p2align 4,,10
	.p2align 3
.L13:
	.loc 3 34 3 is_stmt 1 view .LVU54
	.loc 3 34 18 is_stmt 0 view .LVU55
	subl	$34, %edx
	cmpl	$54, %r9d
	cmovle	%r9d, %edx
	.loc 3 32 41 view .LVU56
	movl	%ecx, %r9d
.LVL14:
	.loc 3 32 41 view .LVU57
	movl	%eax, %ecx
.LVL15:
.L10:
	.loc 3 35 3 is_stmt 1 view .LVU58
	.loc 3 35 19 is_stmt 0 view .LVU59
	movslq	%edx, %rax
	movl	%ecx, 32(%rsp,%rax,4)
	.loc 3 36 9 is_stmt 1 view .LVU60
	.loc 3 36 12 is_stmt 0 view .LVU61
	movl	%r9d, %eax
	subl	%ecx, %eax
.LVL16:
	.loc 3 37 3 is_stmt 1 view .LVU62
	.loc 3 37 18 is_stmt 0 view .LVU63
	leal	1000000000(%rax), %r9d
.LVL17:
	.loc 3 37 18 view .LVU64
	cmovs	%r9d, %eax
.LVL18:
	.loc 3 38 3 is_stmt 1 view .LVU65
	.loc 3 32 37 view .LVU66
	.loc 3 32 28 is_stmt 0 view .LVU67
	subl	$1, %r8d
	.loc 3 32 41 view .LVU68
	leal	21(%rdx), %r9d
.LVL19:
	.loc 3 32 28 is_stmt 1 view .LVU69
	jne	.L13
.LBE148:
	.loc 3 27 15 is_stmt 0 view .LVU70
	movl	$24, %edx
.LBB149:
	.loc 3 32 28 view .LVU71
	movl	$165, %r8d
.LBE149:
.LBB150:
.LBB151:
.LBB152:
	.loc 3 16 32 view .LVU72
	movl	$54, %ecx
.LVL20:
	.loc 3 17 17 view .LVU73
	movl	$54, %esi
	jmp	.L14
.LVL21:
	.p2align 4,,10
	.p2align 3
.L18:
	.loc 3 17 17 view .LVU74
.LBE152:
.LBE151:
	.loc 3 40 32 is_stmt 1 view .LVU75
.LBB155:
.LBI151:
	.loc 3 14 5 view .LVU76
.LBB153:
	.loc 3 16 2 view .LVU77
	.loc 3 16 17 is_stmt 0 view .LVU78
	subl	$1, %ecx
	cmovc	%esi, %ecx
.LVL22:
.L14:
	.loc 3 17 2 is_stmt 1 view .LVU79
	.loc 3 17 17 is_stmt 0 view .LVU80
	subl	$1, %edx
	.loc 3 18 26 view .LVU81
	movslq	%ecx, %r9
	.loc 3 17 17 view .LVU82
	cmovc	%esi, %edx
	.loc 3 18 5 is_stmt 1 view .LVU83
	.loc 3 18 9 is_stmt 0 view .LVU84
	movl	32(%rsp,%r9,4), %eax
	.loc 3 18 54 view .LVU85
	movslq	%edx, %r11
	.loc 3 18 9 view .LVU86
	subl	32(%rsp,%r11,4), %eax
.LVL23:
	.loc 3 19 2 is_stmt 1 view .LVU87
	.loc 3 19 15 is_stmt 0 view .LVU88
	leal	1000000000(%rax), %r11d
	cmovs	%r11d, %eax
.LVL24:
	.loc 3 20 2 is_stmt 1 view .LVU89
.LBE153:
.LBE155:
	.loc 3 40 20 is_stmt 0 view .LVU90
	subl	$1, %r8d
.LBB156:
.LBB154:
	.loc 3 20 35 view .LVU91
	movl	%eax, 32(%rsp,%r9,4)
.LVL25:
	.loc 3 20 35 view .LVU92
.LBE154:
.LBE156:
	.loc 3 40 28 is_stmt 1 view .LVU93
	.loc 3 40 20 view .LVU94
	jne	.L18
.LBE150:
	.loc 3 42 5 view .LVU95
	.loc 3 42 12 is_stmt 0 view .LVU96
	movd	%edx, %xmm1
	movd	%ecx, %xmm0
	movl	$232, %r8d
	movl	%ebx, 260(%rsp)
	leaq	32(%rsp), %rdx
	movq	%r10, %rcx
	punpckldq	%xmm1, %xmm0
	movq	%xmm0, 252(%rsp)
	call	memcpy
.LVL26:
	.loc 3 43 1 view .LVU97
	addq	$280, %rsp
	.cfi_def_cfa_offset 24
	popq	%rbx
	.cfi_restore 3
	.cfi_def_cfa_offset 16
	popq	%rsi
	.cfi_restore 4
	.cfi_def_cfa_offset 8
	ret
	.cfi_endproc
.LFE48:
	.seh_endproc
	.p2align 4
	.globl	Subgen_FractionUnsigned
	.def	Subgen_FractionUnsigned;	.scl	2;	.type	32;	.endef
	.seh_proc	Subgen_FractionUnsigned
Subgen_FractionUnsigned:
.LVL27:
.LFB49:
	.loc 3 45 1 is_stmt 1 view -0
	.cfi_startproc
	.loc 3 45 1 is_stmt 0 view .LVU99
	.seh_endprologue
	.loc 3 46 5 is_stmt 1 view .LVU100
.LVL28:
.LBB159:
.LBI159:
	.loc 3 14 5 view .LVU101
.LBB160:
	.loc 3 16 2 view .LVU102
	.loc 3 16 17 is_stmt 0 view .LVU103
	movl	$54, %r8d
.LBE160:
.LBE159:
	.loc 3 46 32 view .LVU104
	pxor	%xmm0, %xmm0
.LBB163:
.LBB161:
	.loc 3 16 13 view .LVU105
	movl	220(%rcx), %edx
	.loc 3 17 13 view .LVU106
	movl	224(%rcx), %eax
	.loc 3 16 17 view .LVU107
	subl	$1, %edx
	cmovc	%r8d, %edx
	.loc 3 17 17 view .LVU108
	subl	$1, %eax
	cmovc	%r8d, %eax
	movl	%edx, 220(%rcx)
	.loc 3 17 2 is_stmt 1 view .LVU109
	.loc 3 18 26 is_stmt 0 view .LVU110
	movslq	%edx, %rdx
	.loc 3 18 54 view .LVU111
	movslq	%eax, %r8
	movl	%eax, 224(%rcx)
	.loc 3 18 5 is_stmt 1 view .LVU112
	.loc 3 18 9 is_stmt 0 view .LVU113
	movl	(%rcx,%rdx,4), %eax
	subl	(%rcx,%r8,4), %eax
.LVL29:
	.loc 3 19 2 is_stmt 1 view .LVU114
	.loc 3 19 15 is_stmt 0 view .LVU115
	leal	1000000000(%rax), %r8d
	cmovs	%r8d, %eax
.LVL30:
	.loc 3 20 2 is_stmt 1 view .LVU116
.LBE161:
.LBE163:
	.loc 3 46 32 is_stmt 0 view .LVU117
	cvtsi2ssl	%eax, %xmm0
.LBB164:
.LBB162:
	.loc 3 20 35 view .LVU118
	movl	%eax, (%rcx,%rdx,4)
.LVL31:
	.loc 3 20 35 view .LVU119
.LBE162:
.LBE164:
	.loc 3 46 32 view .LVU120
	divss	.LC0(%rip), %xmm0
	.loc 3 47 1 view .LVU121
	ret
	.cfi_endproc
.LFE49:
	.seh_endproc
	.p2align 4
	.globl	Subgen_FractionSigned
	.def	Subgen_FractionSigned;	.scl	2;	.type	32;	.endef
	.seh_proc	Subgen_FractionSigned
Subgen_FractionSigned:
.LVL32:
.LFB50:
	.loc 3 49 1 is_stmt 1 view -0
	.cfi_startproc
	.loc 3 49 1 is_stmt 0 view .LVU123
	.seh_endprologue
	.loc 3 50 5 is_stmt 1 view .LVU124
.LVL33:
.LBB169:
.LBI169:
	.loc 3 44 7 view .LVU125
.LBB170:
	.loc 3 46 5 view .LVU126
.LBB171:
.LBI171:
	.loc 3 14 5 view .LVU127
.LBB172:
	.loc 3 16 2 view .LVU128
	.loc 3 16 17 is_stmt 0 view .LVU129
	movl	$54, %r8d
.LBE172:
.LBE171:
	.loc 3 46 32 view .LVU130
	pxor	%xmm0, %xmm0
.LBB175:
.LBB173:
	.loc 3 16 13 view .LVU131
	movl	220(%rcx), %edx
	.loc 3 17 13 view .LVU132
	movl	224(%rcx), %eax
	.loc 3 16 17 view .LVU133
	subl	$1, %edx
	cmovc	%r8d, %edx
	.loc 3 17 17 view .LVU134
	subl	$1, %eax
	cmovc	%r8d, %eax
	movl	%edx, 220(%rcx)
	.loc 3 17 2 is_stmt 1 view .LVU135
	.loc 3 18 26 is_stmt 0 view .LVU136
	movslq	%edx, %rdx
	.loc 3 18 54 view .LVU137
	movslq	%eax, %r8
	movl	%eax, 224(%rcx)
	.loc 3 18 5 is_stmt 1 view .LVU138
	.loc 3 18 9 is_stmt 0 view .LVU139
	movl	(%rcx,%rdx,4), %eax
	subl	(%rcx,%r8,4), %eax
.LVL34:
	.loc 3 19 2 is_stmt 1 view .LVU140
	.loc 3 19 15 is_stmt 0 view .LVU141
	leal	1000000000(%rax), %r8d
	cmovs	%r8d, %eax
.LVL35:
	.loc 3 20 2 is_stmt 1 view .LVU142
.LBE173:
.LBE175:
	.loc 3 46 32 is_stmt 0 view .LVU143
	cvtsi2ssl	%eax, %xmm0
	divss	.LC0(%rip), %xmm0
.LBB176:
.LBB174:
	.loc 3 20 35 view .LVU144
	movl	%eax, (%rcx,%rdx,4)
.LVL36:
	.loc 3 20 35 view .LVU145
.LBE174:
.LBE176:
.LBE170:
.LBE169:
	.loc 3 50 44 view .LVU146
	addss	%xmm0, %xmm0
	.loc 3 50 48 view .LVU147
	subss	.LC1(%rip), %xmm0
	.loc 3 51 1 view .LVU148
	ret
	.cfi_endproc
.LFE50:
	.seh_endproc
	.p2align 4
	.globl	Subgen_Range
	.def	Subgen_Range;	.scl	2;	.type	32;	.endef
	.seh_proc	Subgen_Range
Subgen_Range:
.LVL37:
.LFB51:
	.loc 3 53 1 is_stmt 1 view -0
	.cfi_startproc
	.loc 3 53 1 is_stmt 0 view .LVU150
	.seh_endprologue
	.loc 3 54 5 is_stmt 1 view .LVU151
.LBB181:
.LBB182:
.LBB183:
.LBB184:
	.loc 3 16 17 is_stmt 0 view .LVU152
	movl	$54, %r8d
.LBE184:
.LBE183:
	.loc 3 46 32 view .LVU153
	pxor	%xmm0, %xmm0
.LBB188:
.LBB185:
	.loc 3 16 13 view .LVU154
	movl	220(%rcx), %edx
	.loc 3 17 13 view .LVU155
	movl	224(%rcx), %eax
	.loc 3 16 17 view .LVU156
	subl	$1, %edx
.LBE185:
.LBE188:
.LBE182:
.LBE181:
	.loc 3 54 24 view .LVU157
	subss	%xmm1, %xmm2
.LVL38:
.LBB193:
.LBI181:
	.loc 3 44 7 is_stmt 1 view .LVU158
.LBB191:
	.loc 3 46 5 view .LVU159
.LBB189:
.LBI183:
	.loc 3 14 5 view .LVU160
.LBB186:
	.loc 3 16 2 view .LVU161
	.loc 3 16 17 is_stmt 0 view .LVU162
	cmovc	%r8d, %edx
	.loc 3 17 17 view .LVU163
	subl	$1, %eax
	cmovc	%r8d, %eax
	movl	%edx, 220(%rcx)
	.loc 3 17 2 is_stmt 1 view .LVU164
	.loc 3 18 26 is_stmt 0 view .LVU165
	movslq	%edx, %rdx
	.loc 3 18 54 view .LVU166
	movslq	%eax, %r8
	movl	%eax, 224(%rcx)
	.loc 3 18 5 is_stmt 1 view .LVU167
	.loc 3 18 9 is_stmt 0 view .LVU168
	movl	(%rcx,%rdx,4), %eax
	subl	(%rcx,%r8,4), %eax
.LVL39:
	.loc 3 19 2 is_stmt 1 view .LVU169
	.loc 3 19 15 is_stmt 0 view .LVU170
	leal	1000000000(%rax), %r8d
	cmovs	%r8d, %eax
.LVL40:
	.loc 3 20 2 is_stmt 1 view .LVU171
.LBE186:
.LBE189:
	.loc 3 46 32 is_stmt 0 view .LVU172
	cvtsi2ssl	%eax, %xmm0
	divss	.LC0(%rip), %xmm0
.LBE191:
.LBE193:
	.loc 3 54 31 view .LVU173
	mulss	%xmm0, %xmm2
.LBB194:
.LBB192:
.LBB190:
.LBB187:
	.loc 3 20 35 view .LVU174
	movl	%eax, (%rcx,%rdx,4)
.LVL41:
	.loc 3 20 35 view .LVU175
.LBE187:
.LBE190:
.LBE192:
.LBE194:
	.loc 3 54 16 view .LVU176
	addss	%xmm1, %xmm2
	movaps	%xmm2, %xmm0
	.loc 3 55 1 view .LVU177
	ret
	.cfi_endproc
.LFE51:
	.seh_endproc
	.section .rdata,"dr"
.LC2:
	.ascii "%X\0"
	.text
	.p2align 4
	.globl	Helper_PrintFloatHex
	.def	Helper_PrintFloatHex;	.scl	2;	.type	32;	.endef
	.seh_proc	Helper_PrintFloatHex
Helper_PrintFloatHex:
.LVL42:
.LFB84:
	.file 4 "C:/Nikita/REPOS/Boids/C/Base/Helper.h"
	.loc 4 8 1 is_stmt 1 view -0
	.cfi_startproc
	.loc 4 8 1 is_stmt 0 view .LVU179
	.seh_endprologue
	.loc 4 9 5 is_stmt 1 view .LVU180
	.loc 4 10 5 view .LVU181
	.loc 4 11 5 is_stmt 0 view .LVU182
	leaq	.LC2(%rip), %rcx
	.loc 4 8 1 view .LVU183
	movd	%xmm0, %edx
.LVL43:
	.loc 4 11 5 is_stmt 1 view .LVU184
	.loc 4 12 1 is_stmt 0 view .LVU185
	.loc 4 11 5 view .LVU186
	jmp	printf
.LVL44:
	.loc 4 11 5 view .LVU187
	.cfi_endproc
.LFE84:
	.seh_endproc
	.p2align 4
	.globl	MyVector2_IsZero
	.def	MyVector2_IsZero;	.scl	2;	.type	32;	.endef
	.seh_proc	MyVector2_IsZero
MyVector2_IsZero:
.LVL45:
.LFB85:
	.file 5 "C:/Nikita/REPOS/Boids/C/Base/MyVector2.h"
	.loc 5 18 1 is_stmt 1 view -0
	.cfi_startproc
	.loc 5 18 1 is_stmt 0 view .LVU189
	.seh_endprologue
	.loc 5 19 5 is_stmt 1 view .LVU190
	.loc 5 19 22 is_stmt 0 view .LVU191
	pxor	%xmm0, %xmm0
	movd	%ecx, %xmm2
	ucomiss	%xmm0, %xmm2
	jp	.L44
	jne	.L44
	.loc 5 19 27 discriminator 1 view .LVU192
	shrq	$32, %rcx
.LVL46:
	.loc 5 19 22 discriminator 1 view .LVU193
	movl	$0, %edx
	movd	%ecx, %xmm1
	ucomiss	%xmm0, %xmm1
	setnp	%al
	cmovne	%edx, %eax
	.loc 5 20 1 discriminator 1 view .LVU194
	ret
	.p2align 4,,10
	.p2align 3
.L44:
	.loc 5 20 1 discriminator 1 view .LVU195
	xorl	%eax, %eax
	.loc 5 20 1 view .LVU196
	ret
	.cfi_endproc
.LFE85:
	.seh_endproc
	.p2align 4
	.globl	MyVector2_PrintVector2Hex
	.def	MyVector2_PrintVector2Hex;	.scl	2;	.type	32;	.endef
	.seh_proc	MyVector2_PrintVector2Hex
MyVector2_PrintVector2Hex:
.LVL47:
.LFB86:
	.loc 5 22 1 is_stmt 1 view -0
	.cfi_startproc
	.loc 5 22 1 is_stmt 0 view .LVU198
	pushq	%rsi
	.seh_pushreg	%rsi
	.cfi_def_cfa_offset 16
	.cfi_offset 4, -16
	pushq	%rbx
	.seh_pushreg	%rbx
	.cfi_def_cfa_offset 24
	.cfi_offset 3, -24
	subq	$40, %rsp
	.seh_stackalloc	40
	.cfi_def_cfa_offset 64
	.seh_endprologue
	.loc 5 23 5 is_stmt 1 view .LVU199
.LBB195:
.LBI195:
	.loc 4 7 6 view .LVU200
.LBB196:
	.loc 4 9 5 view .LVU201
	.loc 4 10 5 view .LVU202
	.loc 4 11 5 view .LVU203
	leaq	.LC2(%rip), %rsi
.LBE196:
.LBE195:
	.loc 5 22 1 is_stmt 0 view .LVU204
	movq	%rcx, %rbx
.LVL48:
	.loc 5 23 5 view .LVU205
	movl	%ecx, %edx
.LBB198:
.LBB197:
	.loc 4 11 5 view .LVU206
	movq	%rsi, %rcx
	call	printf
.LVL49:
.LBE197:
.LBE198:
	.loc 5 24 5 is_stmt 1 view .LVU207
.LBB199:
.LBI199:
	.loc 4 7 6 view .LVU208
.LBB200:
	.loc 4 9 5 view .LVU209
	.loc 4 10 5 view .LVU210
	.loc 4 11 5 view .LVU211
.LBE200:
.LBE199:
	.loc 5 24 5 is_stmt 0 view .LVU212
	shrq	$32, %rbx
.LBB203:
.LBB201:
	.loc 4 11 5 view .LVU213
	movq	%rsi, %rcx
.LBE201:
.LBE203:
	.loc 5 24 5 view .LVU214
	movq	%rbx, %rdx
	.loc 5 25 1 view .LVU215
	addq	$40, %rsp
	.cfi_def_cfa_offset 24
	popq	%rbx
	.cfi_restore 3
	.cfi_def_cfa_offset 16
.LVL50:
	.loc 5 25 1 view .LVU216
	popq	%rsi
	.cfi_restore 4
	.cfi_def_cfa_offset 8
.LBB204:
.LBB202:
	.loc 4 11 5 view .LVU217
	jmp	printf
.LVL51:
.LBE202:
.LBE204:
	.cfi_endproc
.LFE86:
	.seh_endproc
	.p2align 4
	.globl	MyVector2_Length
	.def	MyVector2_Length;	.scl	2;	.type	32;	.endef
	.seh_proc	MyVector2_Length
MyVector2_Length:
.LVL52:
.LFB87:
	.loc 5 28 1 is_stmt 1 view -0
	.cfi_startproc
	.loc 5 28 1 is_stmt 0 view .LVU219
	.seh_endprologue
	movd	%ecx, %xmm0
	shrq	$32, %rcx
.LVL53:
	.loc 5 29 28 view .LVU220
	mulss	%xmm0, %xmm0
	movd	%ecx, %xmm1
	.loc 5 29 5 is_stmt 1 view .LVU221
	.loc 5 29 38 is_stmt 0 view .LVU222
	mulss	%xmm1, %xmm1
	.loc 5 29 11 view .LVU223
	addss	%xmm1, %xmm0
.LVL54:
	.loc 5 30 5 is_stmt 1 view .LVU224
	pxor	%xmm1, %xmm1
	ucomiss	%xmm0, %xmm1
	ja	.L55
	.loc 5 30 18 is_stmt 0 view .LVU225
	sqrtss	%xmm0, %xmm0
.LVL55:
	.loc 5 32 1 view .LVU226
	ret
.LVL56:
.L55:
	.loc 5 32 1 view .LVU227
	.loc 5 30 18 view .LVU228
	jmp	sqrtf
.LVL57:
	.loc 5 30 18 view .LVU229
	.cfi_endproc
.LFE87:
	.seh_endproc
	.p2align 4
	.globl	MyVector2_LengthSquared
	.def	MyVector2_LengthSquared;	.scl	2;	.type	32;	.endef
	.seh_proc	MyVector2_LengthSquared
MyVector2_LengthSquared:
.LVL58:
.LFB88:
	.loc 5 34 1 is_stmt 1 view -0
	.cfi_startproc
	.loc 5 34 1 is_stmt 0 view .LVU231
	.seh_endprologue
	movd	%ecx, %xmm0
	shrq	$32, %rcx
.LVL59:
	.loc 5 35 28 view .LVU232
	mulss	%xmm0, %xmm0
	movd	%ecx, %xmm1
	.loc 5 35 5 is_stmt 1 view .LVU233
.LVL60:
	.loc 5 36 5 view .LVU234
	.loc 5 35 38 is_stmt 0 view .LVU235
	mulss	%xmm1, %xmm1
	.loc 5 35 11 view .LVU236
	addss	%xmm1, %xmm0
	.loc 5 37 1 view .LVU237
	ret
	.cfi_endproc
.LFE88:
	.seh_endproc
	.p2align 4
	.globl	MyVector2_Angle
	.def	MyVector2_Angle;	.scl	2;	.type	32;	.endef
	.seh_proc	MyVector2_Angle
MyVector2_Angle:
.LVL61:
.LFB89:
	.loc 5 39 1 is_stmt 1 view -0
	.cfi_startproc
	.loc 5 39 1 is_stmt 0 view .LVU239
	subq	$40, %rsp
	.seh_stackalloc	40
	.cfi_def_cfa_offset 48
	.seh_endprologue
.LBB205:
.LBB206:
	.loc 5 19 22 view .LVU240
	pxor	%xmm2, %xmm2
	movl	$0, %edx
	movd	%ecx, %xmm1
	shrq	$32, %rcx
.LVL62:
	.loc 5 19 22 view .LVU241
	movd	%ecx, %xmm0
.LBE206:
.LBE205:
	.loc 5 44 5 is_stmt 1 view .LVU242
.LVL63:
.LBB208:
.LBI205:
	.loc 5 17 6 view .LVU243
.LBB207:
	.loc 5 19 5 view .LVU244
	.loc 5 19 22 is_stmt 0 view .LVU245
	ucomiss	%xmm2, %xmm0
	setnp	%al
	cmovne	%edx, %eax
	testb	%al, %al
	je	.L61
	ucomiss	%xmm2, %xmm1
	setnp	%al
	cmovne	%edx, %eax
	testb	%al, %al
	jne	.L57
.L61:
.LVL64:
	.loc 5 19 22 view .LVU246
.LBE207:
.LBE208:
	.loc 5 44 38 view .LVU247
	call	atan2f
.LVL65:
	pxor	%xmm2, %xmm2
	cvtss2sd	%xmm0, %xmm2
	.loc 5 44 54 view .LVU248
	subsd	.LC4(%rip), %xmm2
	.loc 5 44 36 view .LVU249
	cvtsd2ss	%xmm2, %xmm2
.L57:
	.loc 5 45 1 view .LVU250
	movaps	%xmm2, %xmm0
	addq	$40, %rsp
	.cfi_def_cfa_offset 8
	ret
	.cfi_endproc
.LFE89:
	.seh_endproc
	.p2align 4
	.globl	MyVector2_Zero
	.def	MyVector2_Zero;	.scl	2;	.type	32;	.endef
	.seh_proc	MyVector2_Zero
MyVector2_Zero:
.LFB90:
	.loc 5 46 28 is_stmt 1 view -0
	.cfi_startproc
	.seh_endprologue
	.loc 5 46 30 view .LVU252
	.loc 5 46 65 is_stmt 0 view .LVU253
	xorl	%eax, %eax
	ret
	.cfi_endproc
.LFE90:
	.seh_endproc
	.p2align 4
	.globl	MyVector2_Add
	.def	MyVector2_Add;	.scl	2;	.type	32;	.endef
	.seh_proc	MyVector2_Add
MyVector2_Add:
.LVL66:
.LFB91:
	.loc 5 47 54 is_stmt 1 view -0
	.cfi_startproc
	.loc 5 47 54 is_stmt 0 view .LVU255
	.seh_endprologue
	.loc 5 47 56 is_stmt 1 view .LVU256
	.loc 5 47 63 is_stmt 0 view .LVU257
	movq	%rcx, %xmm0
	movq	%rdx, %xmm1
	addps	%xmm1, %xmm0
	movq	%xmm0, %rax
	.loc 5 47 106 view .LVU258
	ret
	.cfi_endproc
.LFE91:
	.seh_endproc
	.p2align 4
	.globl	MyVector2_Sub
	.def	MyVector2_Sub;	.scl	2;	.type	32;	.endef
	.seh_proc	MyVector2_Sub
MyVector2_Sub:
.LVL67:
.LFB92:
	.loc 5 48 54 is_stmt 1 view -0
	.cfi_startproc
	.loc 5 48 54 is_stmt 0 view .LVU260
	.seh_endprologue
	.loc 5 48 56 is_stmt 1 view .LVU261
	.loc 5 48 63 is_stmt 0 view .LVU262
	movq	%rcx, %xmm0
	movq	%rdx, %xmm1
	subps	%xmm1, %xmm0
	movq	%xmm0, %rax
	.loc 5 48 106 view .LVU263
	ret
	.cfi_endproc
.LFE92:
	.seh_endproc
	.p2align 4
	.globl	MyVector2_Mul
	.def	MyVector2_Mul;	.scl	2;	.type	32;	.endef
	.seh_proc	MyVector2_Mul
MyVector2_Mul:
.LVL68:
.LFB93:
	.loc 5 49 54 is_stmt 1 view -0
	.cfi_startproc
	.loc 5 49 54 is_stmt 0 view .LVU265
	.seh_endprologue
	.loc 5 49 56 is_stmt 1 view .LVU266
	.loc 5 49 82 is_stmt 0 view .LVU267
	movsldup	%xmm1, %xmm1
.LVL69:
	.loc 5 49 63 view .LVU268
	movq	%rcx, %xmm0
	mulps	%xmm1, %xmm0
	movq	%xmm0, %rax
	.loc 5 49 107 view .LVU269
	ret
	.cfi_endproc
.LFE93:
	.seh_endproc
	.p2align 4
	.globl	MyVector2_Div
	.def	MyVector2_Div;	.scl	2;	.type	32;	.endef
	.seh_proc	MyVector2_Div
MyVector2_Div:
.LVL70:
.LFB94:
	.loc 5 50 54 is_stmt 1 view -0
	.cfi_startproc
	.loc 5 50 54 is_stmt 0 view .LVU271
	.seh_endprologue
	.loc 5 50 56 is_stmt 1 view .LVU272
	.loc 5 50 82 is_stmt 0 view .LVU273
	movsldup	%xmm1, %xmm1
.LVL71:
	.loc 5 50 82 view .LVU274
	movq	%rcx, %xmm0
.LVL72:
	.loc 5 50 82 view .LVU275
	movhps	.LC5(%rip), %xmm1
	divps	%xmm1, %xmm0
.LVL73:
	.loc 5 50 82 view .LVU276
	movq	%xmm0, %rax
	.loc 5 50 107 view .LVU277
	ret
	.cfi_endproc
.LFE94:
	.seh_endproc
	.p2align 4
	.globl	MyVector2_Abs
	.def	MyVector2_Abs;	.scl	2;	.type	32;	.endef
	.seh_proc	MyVector2_Abs
MyVector2_Abs:
.LVL74:
.LFB95:
	.loc 5 51 54 is_stmt 1 view -0
	.cfi_startproc
	.loc 5 51 54 is_stmt 0 view .LVU279
	.seh_endprologue
	.loc 5 51 56 is_stmt 1 view .LVU280
	.loc 5 51 77 is_stmt 0 view .LVU281
	movq	.LC6(%rip), %xmm1
	movq	%rcx, %xmm0
	andps	%xmm1, %xmm0
	movq	%xmm0, %rax
	.loc 5 51 103 view .LVU282
	ret
	.cfi_endproc
.LFE95:
	.seh_endproc
	.p2align 4
	.globl	MyVector2_Negate
	.def	MyVector2_Negate;	.scl	2;	.type	32;	.endef
	.seh_proc	MyVector2_Negate
MyVector2_Negate:
.LVL75:
.LFB96:
	.loc 5 52 54 is_stmt 1 view -0
	.cfi_startproc
	.loc 5 52 54 is_stmt 0 view .LVU284
	.seh_endprologue
	.loc 5 52 56 is_stmt 1 view .LVU285
	.loc 5 52 77 is_stmt 0 view .LVU286
	movq	.LC7(%rip), %xmm1
	movq	%rcx, %xmm0
	xorps	%xmm1, %xmm0
	movq	%xmm0, %rax
	.loc 5 52 92 view .LVU287
	ret
	.cfi_endproc
.LFE96:
	.seh_endproc
	.p2align 4
	.globl	MyVector2_Normalized
	.def	MyVector2_Normalized;	.scl	2;	.type	32;	.endef
	.seh_proc	MyVector2_Normalized
MyVector2_Normalized:
.LVL76:
.LFB97:
	.loc 5 54 1 is_stmt 1 view -0
	.cfi_startproc
	.loc 5 54 1 is_stmt 0 view .LVU289
	subq	$56, %rsp
	.seh_stackalloc	56
	.cfi_def_cfa_offset 64
	movaps	%xmm6, 32(%rsp)
	.seh_savexmm	%xmm6, 32
	.cfi_offset 23, -32
	.seh_endprologue
	.loc 5 54 1 view .LVU290
	movq	%rcx, %xmm6
.LVL77:
	.loc 5 54 1 view .LVU291
	movshdup	%xmm6, %xmm1
	movaps	%xmm6, %xmm0
	.loc 5 55 5 is_stmt 1 view .LVU292
.LVL78:
.LBB211:
.LBI211:
	.loc 5 27 7 view .LVU293
.LBB212:
	.loc 5 29 5 view .LVU294
	.loc 5 29 28 is_stmt 0 view .LVU295
	mulss	%xmm6, %xmm0
.LVL79:
	.loc 5 29 38 view .LVU296
	mulss	%xmm1, %xmm1
	.loc 5 29 11 view .LVU297
	addss	%xmm1, %xmm0
.LVL80:
	.loc 5 30 5 is_stmt 1 view .LVU298
	pxor	%xmm1, %xmm1
	ucomiss	%xmm0, %xmm1
	ja	.L77
	.loc 5 30 18 is_stmt 0 view .LVU299
	sqrtss	%xmm0, %xmm0
.LVL81:
.L75:
	.loc 5 31 5 is_stmt 1 view .LVU300
	.loc 5 31 5 is_stmt 0 view .LVU301
.LBE212:
.LBE211:
	.loc 5 56 5 is_stmt 1 view .LVU302
	.loc 5 56 11 is_stmt 0 view .LVU303
	movss	.LC1(%rip), %xmm1
	divss	%xmm0, %xmm1
.LVL82:
	.loc 5 57 5 is_stmt 1 view .LVU304
	.loc 5 57 29 is_stmt 0 view .LVU305
	movsldup	%xmm1, %xmm1
.LVL83:
	.loc 5 57 12 view .LVU306
	mulps	%xmm6, %xmm1
	.loc 5 58 1 view .LVU307
	movaps	32(%rsp), %xmm6
.LVL84:
	.loc 5 57 12 view .LVU308
	movq	%xmm1, %rax
	.loc 5 58 1 view .LVU309
	addq	$56, %rsp
	.cfi_remember_state
	.cfi_restore 23
	.cfi_def_cfa_offset 8
	ret
.LVL85:
.L77:
	.cfi_restore_state
.LBB214:
.LBB213:
	.loc 5 30 18 view .LVU310
	call	sqrtf
.LVL86:
	.loc 5 30 18 view .LVU311
	jmp	.L75
.LBE213:
.LBE214:
	.cfi_endproc
.LFE97:
	.seh_endproc
	.p2align 4
	.globl	MyVector2_RandNormDir
	.def	MyVector2_RandNormDir;	.scl	2;	.type	32;	.endef
	.seh_proc	MyVector2_RandNormDir
MyVector2_RandNormDir:
.LVL87:
.LFB98:
	.loc 5 60 1 is_stmt 1 view -0
	.cfi_startproc
	.loc 5 60 1 is_stmt 0 view .LVU313
	pushq	%rbx
	.seh_pushreg	%rbx
	.cfi_def_cfa_offset 16
	.cfi_offset 3, -16
	subq	$80, %rsp
	.seh_stackalloc	80
	.cfi_def_cfa_offset 96
	movaps	%xmm6, 32(%rsp)
	.seh_savexmm	%xmm6, 32
	movaps	%xmm7, 48(%rsp)
	.seh_savexmm	%xmm7, 48
	movaps	%xmm8, 64(%rsp)
	.seh_savexmm	%xmm8, 64
	.cfi_offset 23, -64
	.cfi_offset 24, -48
	.cfi_offset 25, -32
	.seh_endprologue
	.loc 5 61 5 is_stmt 1 view .LVU314
.LVL88:
.LBB239:
.LBI239:
	.loc 3 48 7 view .LVU315
.LBB240:
	.loc 3 50 5 view .LVU316
.LBB241:
.LBI241:
	.loc 3 44 7 view .LVU317
.LBB242:
	.loc 3 46 5 view .LVU318
.LBB243:
.LBI243:
	.loc 3 14 5 view .LVU319
.LBB244:
	.loc 3 16 2 view .LVU320
	.loc 3 16 13 is_stmt 0 view .LVU321
	movl	220(%rcx), %edx
	.loc 3 16 5 view .LVU322
	testl	%edx, %edx
.LBE244:
.LBE243:
.LBE242:
.LBE241:
.LBE240:
.LBE239:
	.loc 5 60 1 view .LVU323
	movq	%rcx, %rax
.LBB283:
.LBB275:
.LBB267:
.LBB259:
.LBB252:
.LBB245:
	.loc 3 16 5 view .LVU324
	je	.L88
	.loc 3 17 13 view .LVU325
	movl	224(%rax), %ecx
.LVL89:
	.loc 3 16 17 view .LVU326
	leal	-1(%rdx), %r10d
.LBE245:
.LBE252:
.LBE259:
.LBE267:
.LBE275:
.LBE283:
.LBB284:
.LBB285:
.LBB286:
.LBB287:
.LBB288:
.LBB289:
	subl	$2, %edx
.LBE289:
.LBE288:
.LBE287:
.LBE286:
.LBE285:
.LBE284:
.LBB321:
.LBB276:
.LBB268:
.LBB260:
.LBB253:
.LBB246:
	.loc 3 17 2 is_stmt 1 view .LVU327
	.loc 3 17 5 is_stmt 0 view .LVU328
	testl	%ecx, %ecx
	je	.L89
.L92:
	.loc 3 17 17 view .LVU329
	leal	-1(%rcx), %r9d
.LBE246:
.LBE253:
.LBE260:
.LBE268:
.LBE276:
.LBE321:
.LBB322:
.LBB314:
.LBB308:
.LBB302:
.LBB296:
.LBB290:
	subl	$2, %ecx
.L80:
.LBE290:
.LBE296:
.LBE302:
.LBE308:
.LBE314:
.LBE322:
.LBB323:
.LBB277:
.LBB269:
.LBB261:
.LBB254:
.LBB247:
	.loc 3 18 5 is_stmt 1 view .LVU330
	.loc 3 18 26 is_stmt 0 view .LVU331
	movslq	%r10d, %r11
	.loc 3 18 54 view .LVU332
	movslq	%r9d, %rbx
.LBE247:
.LBE254:
	.loc 3 46 32 view .LVU333
	pxor	%xmm6, %xmm6
.LBE261:
.LBE269:
.LBE277:
.LBE323:
.LBB324:
.LBB315:
.LBB309:
.LBB303:
	pxor	%xmm7, %xmm7
.LBE303:
.LBE309:
.LBE315:
.LBE324:
.LBB325:
.LBB278:
.LBB270:
.LBB262:
.LBB255:
.LBB248:
	.loc 3 18 9 view .LVU334
	movl	(%rax,%r11,4), %r8d
	subl	(%rax,%rbx,4), %r8d
.LVL90:
	.loc 3 19 2 is_stmt 1 view .LVU335
.LBE248:
.LBE255:
	.loc 3 46 32 is_stmt 0 view .LVU336
	movss	.LC0(%rip), %xmm0
.LBE262:
.LBE270:
	.loc 3 50 48 view .LVU337
	movss	.LC1(%rip), %xmm8
.LBB271:
.LBB263:
.LBB256:
.LBB249:
	.loc 3 19 15 view .LVU338
	leal	1000000000(%r8), %ebx
	cmovs	%ebx, %r8d
.LVL91:
	.loc 3 20 2 is_stmt 1 view .LVU339
.LBE249:
.LBE256:
.LBE263:
.LBE271:
.LBE278:
.LBE325:
.LBB326:
.LBB316:
.LBB310:
.LBB304:
.LBB297:
.LBB291:
	.loc 3 16 32 is_stmt 0 view .LVU340
	testl	%r10d, %r10d
.LBE291:
.LBE297:
.LBE304:
.LBE310:
.LBE316:
.LBE326:
.LBB327:
.LBB279:
.LBB272:
.LBB264:
.LBB257:
.LBB250:
	.loc 3 20 35 view .LVU341
	movl	%r8d, (%rax,%r11,4)
.LVL92:
	.loc 3 20 35 view .LVU342
.LBE250:
.LBE257:
	.loc 3 46 32 view .LVU343
	cvtsi2ssl	%r8d, %xmm6
.LBE264:
.LBE272:
.LBE279:
.LBE327:
.LBB328:
.LBB317:
.LBB311:
.LBB305:
.LBB298:
.LBB292:
	.loc 3 16 32 view .LVU344
	movl	$54, %r8d
	cmove	%r8d, %edx
	.loc 3 17 32 view .LVU345
	testl	%r9d, %r9d
	cmove	%r8d, %ecx
	movl	%edx, 220(%rax)
	.loc 3 18 26 view .LVU346
	movslq	%edx, %rdx
	movl	%ecx, 224(%rax)
	.loc 3 18 54 view .LVU347
	movslq	%ecx, %rcx
	.loc 3 18 9 view .LVU348
	movl	(%rax,%rdx,4), %r8d
	subl	(%rax,%rcx,4), %r8d
.LBE292:
.LBE298:
.LBE305:
.LBE311:
.LBE317:
.LBE328:
.LBB329:
.LBB280:
.LBB273:
.LBB265:
	.loc 3 46 32 view .LVU349
	divss	%xmm0, %xmm6
.LBE265:
.LBE273:
.LBE280:
.LBE329:
.LBB330:
.LBB318:
.LBB312:
.LBB306:
.LBB299:
.LBB293:
	.loc 3 18 9 view .LVU350
	movl	%r8d, %ecx
	.loc 3 19 15 view .LVU351
	leal	1000000000(%r8), %r8d
	cmovs	%r8d, %ecx
.LBE293:
.LBE299:
	.loc 3 46 32 view .LVU352
	cvtsi2ssl	%ecx, %xmm7
.LBB300:
.LBB294:
	.loc 3 20 35 view .LVU353
	movl	%ecx, (%rax,%rdx,4)
.LBE294:
.LBE300:
	.loc 3 46 32 view .LVU354
	divss	%xmm0, %xmm7
.LBE306:
.LBE312:
.LBE318:
.LBE330:
.LBB331:
.LBB281:
	.loc 3 50 44 view .LVU355
	addss	%xmm6, %xmm6
	.loc 3 50 48 view .LVU356
	subss	%xmm8, %xmm6
.LVL93:
	.loc 3 50 48 view .LVU357
.LBE281:
.LBE331:
	.loc 5 62 5 is_stmt 1 view .LVU358
.LBB332:
.LBI284:
	.loc 3 48 7 view .LVU359
.LBB319:
	.loc 3 50 5 view .LVU360
.LBB313:
.LBI286:
	.loc 3 44 7 view .LVU361
.LBB307:
	.loc 3 46 5 view .LVU362
.LBB301:
.LBI288:
	.loc 3 14 5 view .LVU363
.LBB295:
	.loc 3 16 2 view .LVU364
	.loc 3 17 2 view .LVU365
	.loc 3 18 5 view .LVU366
	.loc 3 19 2 view .LVU367
	.loc 3 20 2 view .LVU368
	.loc 3 20 2 is_stmt 0 view .LVU369
.LBE295:
.LBE301:
.LBE307:
.LBE313:
.LBE319:
.LBE332:
.LBB333:
.LBB334:
.LBB335:
.LBB336:
	.loc 5 29 28 view .LVU370
	movaps	%xmm6, %xmm0
	mulss	%xmm6, %xmm0
.LBE336:
.LBE335:
.LBE334:
.LBE333:
.LBB343:
.LBB320:
	.loc 3 50 44 view .LVU371
	addss	%xmm7, %xmm7
	.loc 3 50 48 view .LVU372
	subss	%xmm8, %xmm7
.LVL94:
	.loc 3 50 48 view .LVU373
.LBE320:
.LBE343:
	.loc 5 63 5 is_stmt 1 view .LVU374
	.loc 5 64 5 view .LVU375
.LBB344:
.LBI333:
	.loc 5 53 11 view .LVU376
.LBB341:
	.loc 5 55 5 view .LVU377
.LBB339:
.LBI335:
	.loc 5 27 7 view .LVU378
.LBB337:
	.loc 5 29 5 view .LVU379
	.loc 5 29 38 is_stmt 0 view .LVU380
	movaps	%xmm7, %xmm1
	mulss	%xmm7, %xmm1
	.loc 5 29 11 view .LVU381
	addss	%xmm1, %xmm0
.LVL95:
	.loc 5 30 5 is_stmt 1 view .LVU382
	pxor	%xmm1, %xmm1
	ucomiss	%xmm0, %xmm1
	ja	.L91
	.loc 5 30 18 is_stmt 0 view .LVU383
	sqrtss	%xmm0, %xmm0
.LVL96:
.L87:
	.loc 5 31 5 is_stmt 1 view .LVU384
	.loc 5 31 5 is_stmt 0 view .LVU385
.LBE337:
.LBE339:
	.loc 5 56 5 is_stmt 1 view .LVU386
	.loc 5 56 11 is_stmt 0 view .LVU387
	divss	%xmm0, %xmm8
.LVL97:
	.loc 5 57 5 is_stmt 1 view .LVU388
	.loc 5 57 29 is_stmt 0 view .LVU389
	mulss	%xmm8, %xmm6
.LVL98:
	.loc 5 57 37 view .LVU390
	mulss	%xmm8, %xmm7
.LVL99:
	.loc 5 57 37 view .LVU391
.LBE341:
.LBE344:
	.loc 5 65 1 view .LVU392
	movaps	64(%rsp), %xmm8
.LVL100:
	.loc 5 65 1 view .LVU393
	movaps	%xmm6, %xmm2
	movaps	32(%rsp), %xmm6
	unpcklps	%xmm7, %xmm2
	movaps	48(%rsp), %xmm7
	movq	%xmm2, %rax
.LVL101:
	.loc 5 65 1 view .LVU394
	addq	$80, %rsp
	.cfi_remember_state
	.cfi_restore 25
	.cfi_restore 24
	.cfi_restore 23
	.cfi_def_cfa_offset 16
	popq	%rbx
	.cfi_restore 3
	.cfi_def_cfa_offset 8
	ret
.LVL102:
	.p2align 4,,10
	.p2align 3
.L88:
	.cfi_restore_state
.LBB345:
.LBB282:
.LBB274:
.LBB266:
.LBB258:
.LBB251:
	.loc 3 17 13 view .LVU395
	movl	224(%rax), %ecx
	movl	$53, %edx
	.loc 3 16 32 view .LVU396
	movl	$54, %r10d
	.loc 3 17 2 is_stmt 1 view .LVU397
	.loc 3 17 5 is_stmt 0 view .LVU398
	testl	%ecx, %ecx
	jne	.L92
.L89:
	.loc 3 17 5 view .LVU399
	movl	$53, %ecx
	.loc 3 17 32 view .LVU400
	movl	$54, %r9d
	jmp	.L80
.LVL103:
.L91:
	.loc 3 17 32 view .LVU401
.LBE251:
.LBE258:
.LBE266:
.LBE274:
.LBE282:
.LBE345:
.LBB346:
.LBB342:
.LBB340:
.LBB338:
	.loc 5 30 18 view .LVU402
	call	sqrtf
.LVL104:
	.loc 5 30 18 view .LVU403
	jmp	.L87
.LBE338:
.LBE340:
.LBE342:
.LBE346:
	.cfi_endproc
.LFE98:
	.seh_endproc
	.p2align 4
	.globl	MyVector2_ClampLength
	.def	MyVector2_ClampLength;	.scl	2;	.type	32;	.endef
	.seh_proc	MyVector2_ClampLength
MyVector2_ClampLength:
.LVL105:
.LFB99:
	.loc 5 67 1 is_stmt 1 view -0
	.cfi_startproc
	.loc 5 67 1 is_stmt 0 view .LVU405
	subq	$72, %rsp
	.seh_stackalloc	72
	.cfi_def_cfa_offset 80
	movaps	%xmm6, 48(%rsp)
	.seh_savexmm	%xmm6, 48
	.cfi_offset 23, -32
	.seh_endprologue
	.loc 5 67 1 view .LVU406
	movq	%rcx, %xmm6
.LVL106:
	.loc 5 67 1 view .LVU407
	movq	%rcx, %rax
.LVL107:
	.loc 5 67 1 view .LVU408
	movshdup	%xmm6, %xmm3
	movaps	%xmm6, %xmm0
	.loc 5 68 5 is_stmt 1 view .LVU409
.LVL108:
.LBB353:
.LBI353:
	.loc 5 27 7 view .LVU410
.LBB354:
	.loc 5 29 5 view .LVU411
	.loc 5 29 28 is_stmt 0 view .LVU412
	mulss	%xmm6, %xmm0
.LVL109:
	.loc 5 29 38 view .LVU413
	mulss	%xmm3, %xmm3
	.loc 5 29 11 view .LVU414
	addss	%xmm3, %xmm0
.LVL110:
	.loc 5 30 5 is_stmt 1 view .LVU415
	pxor	%xmm3, %xmm3
	ucomiss	%xmm0, %xmm3
	ja	.L104
	.loc 5 30 18 is_stmt 0 view .LVU416
	sqrtss	%xmm0, %xmm0
.LVL111:
.L96:
	.loc 5 31 5 is_stmt 1 view .LVU417
	.loc 5 31 5 is_stmt 0 view .LVU418
.LBE354:
.LBE353:
	.loc 5 69 5 is_stmt 1 view .LVU419
	.loc 5 69 8 is_stmt 0 view .LVU420
	comiss	%xmm2, %xmm0
	ja	.L106
	.loc 5 71 5 is_stmt 1 view .LVU421
	.loc 5 71 8 is_stmt 0 view .LVU422
	comiss	%xmm0, %xmm1
	ja	.L107
	.loc 5 74 1 view .LVU423
	movaps	48(%rsp), %xmm6
	addq	$72, %rsp
	.cfi_remember_state
	.cfi_restore 23
	.cfi_def_cfa_offset 8
	ret
	.p2align 4,,10
	.p2align 3
.L107:
	.cfi_restore_state
	.loc 5 72 9 is_stmt 1 view .LVU424
	.loc 5 72 16 is_stmt 0 view .LVU425
	divss	%xmm0, %xmm1
.LBB356:
.LBB357:
	.loc 5 49 82 view .LVU426
	movsldup	%xmm1, %xmm1
.LVL112:
	.loc 5 49 82 view .LVU427
	mulps	%xmm6, %xmm1
.LBE357:
.LBE356:
	.loc 5 74 1 view .LVU428
	movaps	48(%rsp), %xmm6
.LVL113:
.LBB360:
.LBB358:
	.loc 5 49 82 view .LVU429
	movq	%xmm1, %rax
.LVL114:
	.loc 5 49 82 view .LVU430
.LBE358:
.LBI356:
	.loc 5 49 11 is_stmt 1 view .LVU431
.LBB359:
	.loc 5 49 56 view .LVU432
	.loc 5 49 56 is_stmt 0 view .LVU433
.LBE359:
.LBE360:
	.loc 5 74 1 view .LVU434
	addq	$72, %rsp
	.cfi_remember_state
	.cfi_restore 23
	.cfi_def_cfa_offset 8
	ret
	.p2align 4,,10
	.p2align 3
.L106:
	.cfi_restore_state
	.loc 5 70 9 is_stmt 1 view .LVU435
	.loc 5 70 16 is_stmt 0 view .LVU436
	divss	%xmm0, %xmm2
.LBB361:
.LBB362:
	.loc 5 49 82 view .LVU437
	movsldup	%xmm2, %xmm2
.LVL115:
	.loc 5 49 82 view .LVU438
	mulps	%xmm6, %xmm2
.LBE362:
.LBE361:
	.loc 5 74 1 view .LVU439
	movaps	48(%rsp), %xmm6
.LVL116:
.LBB365:
.LBB363:
	.loc 5 49 82 view .LVU440
	movq	%xmm2, %rax
.LVL117:
	.loc 5 49 82 view .LVU441
.LBE363:
.LBI361:
	.loc 5 49 11 is_stmt 1 view .LVU442
.LBB364:
	.loc 5 49 56 view .LVU443
	.loc 5 49 56 is_stmt 0 view .LVU444
.LBE364:
.LBE365:
	.loc 5 74 1 view .LVU445
	addq	$72, %rsp
	.cfi_remember_state
	.cfi_restore 23
	.cfi_def_cfa_offset 8
	ret
.LVL118:
.L104:
	.cfi_restore_state
	.loc 5 74 1 view .LVU446
	movss	%xmm2, 96(%rsp)
	movss	%xmm1, 88(%rsp)
	movq	%rcx, 40(%rsp)
.LBB366:
.LBB355:
	.loc 5 30 18 view .LVU447
	call	sqrtf
.LVL119:
	.loc 5 30 18 view .LVU448
	movq	40(%rsp), %rax
	movss	96(%rsp), %xmm2
	movss	88(%rsp), %xmm1
	jmp	.L96
.LBE355:
.LBE366:
	.cfi_endproc
.LFE99:
	.seh_endproc
	.p2align 4
	.globl	MyVector2_Rotate
	.def	MyVector2_Rotate;	.scl	2;	.type	32;	.endef
	.seh_proc	MyVector2_Rotate
MyVector2_Rotate:
.LVL120:
.LFB100:
	.loc 5 76 1 is_stmt 1 view -0
	.cfi_startproc
	.loc 5 76 1 is_stmt 0 view .LVU450
	subq	$72, %rsp
	.seh_stackalloc	72
	.cfi_def_cfa_offset 80
	movaps	%xmm6, 48(%rsp)
	.seh_savexmm	%xmm6, 48
	.cfi_offset 23, -32
	.seh_endprologue
	leaq	44(%rsp), %rdx
	.loc 5 76 1 view .LVU451
	movq	%rcx, %xmm6
.LVL121:
	.loc 5 76 1 view .LVU452
	movaps	%xmm1, %xmm0
	leaq	40(%rsp), %r8
	call	sincosf
.LVL122:
	.loc 5 76 1 view .LVU453
	movss	40(%rsp), %xmm2
	.loc 5 80 19 view .LVU454
	movsldup	%xmm6, %xmm0
	movss	44(%rsp), %xmm1
	.loc 5 77 5 is_stmt 1 view .LVU455
.LVL123:
	.loc 5 78 5 view .LVU456
	.loc 5 79 5 view .LVU457
	.loc 5 80 5 view .LVU458
	.loc 5 81 5 view .LVU459
	.loc 5 82 5 view .LVU460
	.loc 5 80 19 is_stmt 0 view .LVU461
	movaps	%xmm2, %xmm3
	.loc 5 80 32 view .LVU462
	movshdup	%xmm6, %xmm6
.LVL124:
	.loc 5 80 19 view .LVU463
	unpcklps	%xmm1, %xmm3
	.loc 5 80 32 view .LVU464
	unpcklps	%xmm2, %xmm1
.LVL125:
	.loc 5 80 19 view .LVU465
	mulps	%xmm3, %xmm0
	.loc 5 80 32 view .LVU466
	mulps	%xmm1, %xmm6
	.loc 5 82 12 view .LVU467
	addsubps	%xmm6, %xmm0
	.loc 5 83 1 view .LVU468
	movaps	48(%rsp), %xmm6
	.loc 5 82 12 view .LVU469
	movq	%xmm0, %rax
.LVL126:
	.loc 5 83 1 view .LVU470
	addq	$72, %rsp
	.cfi_restore 23
	.cfi_def_cfa_offset 8
	ret
	.cfi_endproc
.LFE100:
	.seh_endproc
	.p2align 4
	.globl	AABB_MinX
	.def	AABB_MinX;	.scl	2;	.type	32;	.endef
	.seh_proc	AABB_MinX
AABB_MinX:
.LVL127:
.LFB101:
	.file 6 "C:/Nikita/REPOS/Boids/C/Base/AABB.h"
	.loc 6 12 29 is_stmt 1 view -0
	.cfi_startproc
	.loc 6 12 29 is_stmt 0 view .LVU472
	.seh_endprologue
	.loc 6 12 31 is_stmt 1 view .LVU473
	.loc 6 12 38 is_stmt 0 view .LVU474
	movss	8(%rcx), %xmm0
	movss	(%rcx), %xmm1
	.loc 6 12 68 view .LVU475
	.loc 6 12 38 view .LVU476
	jmp	fminf
.LVL128:
	.loc 6 12 38 view .LVU477
	.cfi_endproc
.LFE101:
	.seh_endproc
	.p2align 4
	.globl	AABB_MinY
	.def	AABB_MinY;	.scl	2;	.type	32;	.endef
	.seh_proc	AABB_MinY
AABB_MinY:
.LVL129:
.LFB102:
	.loc 6 13 29 is_stmt 1 view -0
	.cfi_startproc
	.loc 6 13 29 is_stmt 0 view .LVU479
	.seh_endprologue
	.loc 6 13 31 is_stmt 1 view .LVU480
	.loc 6 13 38 is_stmt 0 view .LVU481
	movss	12(%rcx), %xmm0
	movss	4(%rcx), %xmm1
	.loc 6 13 68 view .LVU482
	.loc 6 13 38 view .LVU483
	jmp	fminf
.LVL130:
	.loc 6 13 38 view .LVU484
	.cfi_endproc
.LFE102:
	.seh_endproc
	.p2align 4
	.globl	AABB_MaxX
	.def	AABB_MaxX;	.scl	2;	.type	32;	.endef
	.seh_proc	AABB_MaxX
AABB_MaxX:
.LVL131:
.LFB103:
	.loc 6 14 29 is_stmt 1 view -0
	.cfi_startproc
	.loc 6 14 29 is_stmt 0 view .LVU486
	.seh_endprologue
	.loc 6 14 31 is_stmt 1 view .LVU487
	.loc 6 14 38 is_stmt 0 view .LVU488
	movss	8(%rcx), %xmm0
	movss	(%rcx), %xmm1
	.loc 6 14 68 view .LVU489
	.loc 6 14 38 view .LVU490
	jmp	fmaxf
.LVL132:
	.loc 6 14 38 view .LVU491
	.cfi_endproc
.LFE103:
	.seh_endproc
	.p2align 4
	.globl	AABB_MaxY
	.def	AABB_MaxY;	.scl	2;	.type	32;	.endef
	.seh_proc	AABB_MaxY
AABB_MaxY:
.LVL133:
.LFB104:
	.loc 6 15 29 is_stmt 1 view -0
	.cfi_startproc
	.loc 6 15 29 is_stmt 0 view .LVU493
	.seh_endprologue
	.loc 6 15 31 is_stmt 1 view .LVU494
	.loc 6 15 38 is_stmt 0 view .LVU495
	movss	12(%rcx), %xmm0
	movss	4(%rcx), %xmm1
	.loc 6 15 68 view .LVU496
	.loc 6 15 38 view .LVU497
	jmp	fmaxf
.LVL134:
	.loc 6 15 38 view .LVU498
	.cfi_endproc
.LFE104:
	.seh_endproc
	.p2align 4
	.globl	AABB_Size
	.def	AABB_Size;	.scl	2;	.type	32;	.endef
	.seh_proc	AABB_Size
AABB_Size:
.LVL135:
.LFB105:
	.loc 6 16 33 is_stmt 1 view -0
	.cfi_startproc
	.loc 6 16 33 is_stmt 0 view .LVU500
	.seh_endprologue
	.loc 6 16 35 is_stmt 1 view .LVU501
.LVL136:
.LBB367:
.LBI367:
	.loc 5 48 11 view .LVU502
.LBB368:
	.loc 5 48 56 view .LVU503
	.loc 5 48 56 is_stmt 0 view .LVU504
.LBE368:
.LBE367:
	.loc 6 16 86 is_stmt 1 view .LVU505
.LBB370:
.LBI370:
	.loc 5 51 11 view .LVU506
.LBB371:
	.loc 5 51 56 view .LVU507
	.loc 5 51 77 is_stmt 0 view .LVU508
	movq	.LC6(%rip), %xmm2
.LBE371:
.LBE370:
.LBB373:
.LBB369:
	.loc 5 48 82 view .LVU509
	movq	(%rcx), %xmm0
	movq	8(%rcx), %xmm1
	subps	%xmm1, %xmm0
.LBE369:
.LBE373:
.LBB374:
.LBB372:
	.loc 5 51 77 view .LVU510
	andps	%xmm2, %xmm0
	movq	%xmm0, %rax
.LVL137:
	.loc 5 51 77 view .LVU511
.LBE372:
.LBE374:
	.loc 6 16 114 view .LVU512
	ret
	.cfi_endproc
.LFE105:
	.seh_endproc
	.p2align 4
	.globl	AABB_RandPointInside_X
	.def	AABB_RandPointInside_X;	.scl	2;	.type	32;	.endef
	.seh_proc	AABB_RandPointInside_X
AABB_RandPointInside_X:
.LVL138:
.LFB106:
	.loc 6 17 58 is_stmt 1 view -0
	.cfi_startproc
	.loc 6 17 58 is_stmt 0 view .LVU514
	pushq	%rbx
	.seh_pushreg	%rbx
	.cfi_def_cfa_offset 16
	.cfi_offset 3, -16
	subq	$80, %rsp
	.seh_stackalloc	80
	.cfi_def_cfa_offset 96
	movaps	%xmm6, 48(%rsp)
	.seh_savexmm	%xmm6, 48
	movaps	%xmm7, 64(%rsp)
	.seh_savexmm	%xmm7, 64
	.cfi_offset 23, -48
	.cfi_offset 24, -32
	.seh_endprologue
.LBB393:
.LBB394:
	.loc 6 14 38 view .LVU515
	movss	8(%rdx), %xmm7
	movss	(%rdx), %xmm1
	movaps	%xmm7, %xmm0
.LBE394:
.LBE393:
	.loc 6 17 58 view .LVU516
	movq	%rcx, %rbx
	.loc 6 17 60 is_stmt 1 view .LVU517
.LVL139:
.LBB397:
.LBI393:
	.loc 6 14 7 view .LVU518
.LBB395:
	.loc 6 14 31 view .LVU519
	.loc 6 14 38 is_stmt 0 view .LVU520
	movss	%xmm1, 44(%rsp)
	call	fmaxf
.LVL140:
	.loc 6 14 38 view .LVU521
.LBE395:
.LBE397:
.LBB398:
.LBB399:
	.loc 6 12 38 view .LVU522
	movss	44(%rsp), %xmm1
.LBE399:
.LBE398:
.LBB402:
.LBB396:
	.loc 6 14 38 view .LVU523
	movaps	%xmm0, %xmm6
.LVL141:
	.loc 6 14 38 view .LVU524
.LBE396:
.LBE402:
.LBB403:
.LBI398:
	.loc 6 12 7 is_stmt 1 view .LVU525
.LBB400:
	.loc 6 12 31 view .LVU526
	.loc 6 12 38 is_stmt 0 view .LVU527
	movaps	%xmm7, %xmm0
	call	fminf
.LVL142:
.LBE400:
.LBE403:
.LBB404:
.LBB405:
.LBB406:
.LBB407:
.LBB408:
.LBB409:
	.loc 3 16 13 view .LVU528
	movl	220(%rbx), %edx
	.loc 3 16 17 view .LVU529
	movl	$54, %ecx
	.loc 3 17 13 view .LVU530
	movl	224(%rbx), %eax
.LBE409:
.LBE408:
.LBE407:
.LBE406:
	.loc 3 54 24 view .LVU531
	subss	%xmm0, %xmm6
.LBE405:
.LBE404:
.LBB422:
.LBB401:
	.loc 6 12 38 view .LVU532
	movaps	%xmm0, %xmm2
.LVL143:
	.loc 6 12 38 view .LVU533
.LBE401:
.LBE422:
.LBB423:
.LBI404:
	.loc 3 52 7 is_stmt 1 view .LVU534
.LBB420:
	.loc 3 54 5 view .LVU535
.LBB418:
.LBI406:
	.loc 3 44 7 view .LVU536
.LBB416:
	.loc 3 46 5 view .LVU537
.LBB413:
.LBI408:
	.loc 3 14 5 view .LVU538
.LBB410:
	.loc 3 16 2 view .LVU539
.LBE410:
.LBE413:
	.loc 3 46 32 is_stmt 0 view .LVU540
	pxor	%xmm0, %xmm0
.LVL144:
.LBB414:
.LBB411:
	.loc 3 16 17 view .LVU541
	subl	$1, %edx
	cmovc	%ecx, %edx
	.loc 3 17 17 view .LVU542
	subl	$1, %eax
	cmovc	%ecx, %eax
	movl	%edx, 220(%rbx)
	.loc 3 17 2 is_stmt 1 view .LVU543
	.loc 3 18 26 is_stmt 0 view .LVU544
	movslq	%edx, %rdx
	.loc 3 18 54 view .LVU545
	movslq	%eax, %rcx
	movl	%eax, 224(%rbx)
	.loc 3 18 5 is_stmt 1 view .LVU546
	.loc 3 18 9 is_stmt 0 view .LVU547
	movl	(%rbx,%rdx,4), %eax
	subl	(%rbx,%rcx,4), %eax
.LVL145:
	.loc 3 19 2 is_stmt 1 view .LVU548
	.loc 3 19 15 is_stmt 0 view .LVU549
	leal	1000000000(%rax), %ecx
	cmovs	%ecx, %eax
.LVL146:
	.loc 3 20 2 is_stmt 1 view .LVU550
.LBE411:
.LBE414:
	.loc 3 46 32 is_stmt 0 view .LVU551
	cvtsi2ssl	%eax, %xmm0
	divss	.LC0(%rip), %xmm0
.LBE416:
.LBE418:
	.loc 3 54 31 view .LVU552
	mulss	%xmm6, %xmm0
.LBB419:
.LBB417:
.LBB415:
.LBB412:
	.loc 3 20 35 view .LVU553
	movl	%eax, (%rbx,%rdx,4)
.LVL147:
	.loc 3 20 35 view .LVU554
.LBE412:
.LBE415:
.LBE417:
.LBE419:
.LBE420:
.LBE423:
	.loc 6 17 124 view .LVU555
	movaps	48(%rsp), %xmm6
	movaps	64(%rsp), %xmm7
.LBB424:
.LBB421:
	.loc 3 54 16 view .LVU556
	addss	%xmm2, %xmm0
.LBE421:
.LBE424:
	.loc 6 17 124 view .LVU557
	addq	$80, %rsp
	.cfi_restore 24
	.cfi_restore 23
	.cfi_def_cfa_offset 16
	popq	%rbx
	.cfi_restore 3
	.cfi_def_cfa_offset 8
.LVL148:
	.loc 6 17 124 view .LVU558
	ret
	.cfi_endproc
.LFE106:
	.seh_endproc
	.p2align 4
	.globl	AABB_RandPointInside_Y
	.def	AABB_RandPointInside_Y;	.scl	2;	.type	32;	.endef
	.seh_proc	AABB_RandPointInside_Y
AABB_RandPointInside_Y:
.LVL149:
.LFB107:
	.loc 6 18 58 is_stmt 1 view -0
	.cfi_startproc
	.loc 6 18 58 is_stmt 0 view .LVU560
	pushq	%rbx
	.seh_pushreg	%rbx
	.cfi_def_cfa_offset 16
	.cfi_offset 3, -16
	subq	$80, %rsp
	.seh_stackalloc	80
	.cfi_def_cfa_offset 96
	movaps	%xmm6, 48(%rsp)
	.seh_savexmm	%xmm6, 48
	movaps	%xmm7, 64(%rsp)
	.seh_savexmm	%xmm7, 64
	.cfi_offset 23, -48
	.cfi_offset 24, -32
	.seh_endprologue
.LBB443:
.LBB444:
	.loc 6 15 38 view .LVU561
	movss	12(%rdx), %xmm7
	movss	4(%rdx), %xmm1
	movaps	%xmm7, %xmm0
.LBE444:
.LBE443:
	.loc 6 18 58 view .LVU562
	movq	%rcx, %rbx
	.loc 6 18 60 is_stmt 1 view .LVU563
.LVL150:
.LBB447:
.LBI443:
	.loc 6 15 7 view .LVU564
.LBB445:
	.loc 6 15 31 view .LVU565
	.loc 6 15 38 is_stmt 0 view .LVU566
	movss	%xmm1, 44(%rsp)
	call	fmaxf
.LVL151:
	.loc 6 15 38 view .LVU567
.LBE445:
.LBE447:
.LBB448:
.LBB449:
	.loc 6 13 38 view .LVU568
	movss	44(%rsp), %xmm1
.LBE449:
.LBE448:
.LBB452:
.LBB446:
	.loc 6 15 38 view .LVU569
	movaps	%xmm0, %xmm6
.LVL152:
	.loc 6 15 38 view .LVU570
.LBE446:
.LBE452:
.LBB453:
.LBI448:
	.loc 6 13 7 is_stmt 1 view .LVU571
.LBB450:
	.loc 6 13 31 view .LVU572
	.loc 6 13 38 is_stmt 0 view .LVU573
	movaps	%xmm7, %xmm0
	call	fminf
.LVL153:
.LBE450:
.LBE453:
.LBB454:
.LBB455:
.LBB456:
.LBB457:
.LBB458:
.LBB459:
	.loc 3 16 13 view .LVU574
	movl	220(%rbx), %edx
	.loc 3 16 17 view .LVU575
	movl	$54, %ecx
	.loc 3 17 13 view .LVU576
	movl	224(%rbx), %eax
.LBE459:
.LBE458:
.LBE457:
.LBE456:
	.loc 3 54 24 view .LVU577
	subss	%xmm0, %xmm6
.LBE455:
.LBE454:
.LBB472:
.LBB451:
	.loc 6 13 38 view .LVU578
	movaps	%xmm0, %xmm2
.LVL154:
	.loc 6 13 38 view .LVU579
.LBE451:
.LBE472:
.LBB473:
.LBI454:
	.loc 3 52 7 is_stmt 1 view .LVU580
.LBB470:
	.loc 3 54 5 view .LVU581
.LBB468:
.LBI456:
	.loc 3 44 7 view .LVU582
.LBB466:
	.loc 3 46 5 view .LVU583
.LBB463:
.LBI458:
	.loc 3 14 5 view .LVU584
.LBB460:
	.loc 3 16 2 view .LVU585
.LBE460:
.LBE463:
	.loc 3 46 32 is_stmt 0 view .LVU586
	pxor	%xmm0, %xmm0
.LVL155:
.LBB464:
.LBB461:
	.loc 3 16 17 view .LVU587
	subl	$1, %edx
	cmovc	%ecx, %edx
	.loc 3 17 17 view .LVU588
	subl	$1, %eax
	cmovc	%ecx, %eax
	movl	%edx, 220(%rbx)
	.loc 3 17 2 is_stmt 1 view .LVU589
	.loc 3 18 26 is_stmt 0 view .LVU590
	movslq	%edx, %rdx
	.loc 3 18 54 view .LVU591
	movslq	%eax, %rcx
	movl	%eax, 224(%rbx)
	.loc 3 18 5 is_stmt 1 view .LVU592
	.loc 3 18 9 is_stmt 0 view .LVU593
	movl	(%rbx,%rdx,4), %eax
	subl	(%rbx,%rcx,4), %eax
.LVL156:
	.loc 3 19 2 is_stmt 1 view .LVU594
	.loc 3 19 15 is_stmt 0 view .LVU595
	leal	1000000000(%rax), %ecx
	cmovs	%ecx, %eax
.LVL157:
	.loc 3 20 2 is_stmt 1 view .LVU596
.LBE461:
.LBE464:
	.loc 3 46 32 is_stmt 0 view .LVU597
	cvtsi2ssl	%eax, %xmm0
	divss	.LC0(%rip), %xmm0
.LBE466:
.LBE468:
	.loc 3 54 31 view .LVU598
	mulss	%xmm6, %xmm0
.LBB469:
.LBB467:
.LBB465:
.LBB462:
	.loc 3 20 35 view .LVU599
	movl	%eax, (%rbx,%rdx,4)
.LVL158:
	.loc 3 20 35 view .LVU600
.LBE462:
.LBE465:
.LBE467:
.LBE469:
.LBE470:
.LBE473:
	.loc 6 18 124 view .LVU601
	movaps	48(%rsp), %xmm6
	movaps	64(%rsp), %xmm7
.LBB474:
.LBB471:
	.loc 3 54 16 view .LVU602
	addss	%xmm2, %xmm0
.LBE471:
.LBE474:
	.loc 6 18 124 view .LVU603
	addq	$80, %rsp
	.cfi_restore 24
	.cfi_restore 23
	.cfi_def_cfa_offset 16
	popq	%rbx
	.cfi_restore 3
	.cfi_def_cfa_offset 8
.LVL159:
	.loc 6 18 124 view .LVU604
	ret
	.cfi_endproc
.LFE107:
	.seh_endproc
	.p2align 4
	.globl	AABB_RandPointInside
	.def	AABB_RandPointInside;	.scl	2;	.type	32;	.endef
	.seh_proc	AABB_RandPointInside
AABB_RandPointInside:
.LVL160:
.LFB108:
	.loc 6 19 60 is_stmt 1 view -0
	.cfi_startproc
	.loc 6 19 60 is_stmt 0 view .LVU606
	pushq	%r13
	.seh_pushreg	%r13
	.cfi_def_cfa_offset 16
	.cfi_offset 13, -16
	pushq	%r12
	.seh_pushreg	%r12
	.cfi_def_cfa_offset 24
	.cfi_offset 12, -24
	pushq	%rbp
	.seh_pushreg	%rbp
	.cfi_def_cfa_offset 32
	.cfi_offset 6, -32
	pushq	%rdi
	.seh_pushreg	%rdi
	.cfi_def_cfa_offset 40
	.cfi_offset 5, -40
	pushq	%rsi
	.seh_pushreg	%rsi
	.cfi_def_cfa_offset 48
	.cfi_offset 4, -48
	pushq	%rbx
	.seh_pushreg	%rbx
	.cfi_def_cfa_offset 56
	.cfi_offset 3, -56
	subq	$120, %rsp
	.seh_stackalloc	120
	.cfi_def_cfa_offset 176
	movaps	%xmm6, 48(%rsp)
	.seh_savexmm	%xmm6, 48
	movaps	%xmm7, 64(%rsp)
	.seh_savexmm	%xmm7, 64
	movaps	%xmm8, 80(%rsp)
	.seh_savexmm	%xmm8, 80
	movaps	%xmm9, 96(%rsp)
	.seh_savexmm	%xmm9, 96
	.cfi_offset 23, -128
	.cfi_offset 24, -112
	.cfi_offset 25, -96
	.cfi_offset 26, -80
	.seh_endprologue
.LBB499:
.LBB500:
.LBB501:
	.loc 6 14 38 view .LVU607
	movss	8(%rdx), %xmm7
	movss	(%rdx), %xmm1
	movaps	%xmm7, %xmm0
.LBE501:
.LBE500:
.LBE499:
	.loc 6 19 60 view .LVU608
	movq	%rcx, %rbx
	.loc 6 19 62 is_stmt 1 view .LVU609
.LVL161:
.LBB562:
.LBI499:
	.loc 6 17 7 view .LVU610
	.loc 6 17 60 view .LVU611
.LBB505:
.LBI500:
	.loc 6 14 7 view .LVU612
.LBB502:
	.loc 6 14 31 view .LVU613
.LBE502:
.LBE505:
.LBE562:
	.loc 6 19 60 is_stmt 0 view .LVU614
	movq	%rdx, %rbp
.LBB563:
.LBB506:
.LBB503:
	.loc 6 14 38 view .LVU615
	movss	%xmm1, 44(%rsp)
	call	fmaxf
.LVL162:
	.loc 6 14 38 view .LVU616
.LBE503:
.LBE506:
.LBB507:
.LBB508:
	.loc 6 12 38 view .LVU617
	movss	44(%rsp), %xmm1
.LBE508:
.LBE507:
.LBB511:
.LBB504:
	.loc 6 14 38 view .LVU618
	movaps	%xmm0, %xmm6
.LVL163:
	.loc 6 14 38 view .LVU619
.LBE504:
.LBE511:
.LBB512:
.LBI507:
	.loc 6 12 7 is_stmt 1 view .LVU620
.LBB509:
	.loc 6 12 31 view .LVU621
	.loc 6 12 38 is_stmt 0 view .LVU622
	movaps	%xmm7, %xmm0
	call	fminf
.LVL164:
.LBE509:
.LBE512:
.LBB513:
.LBB514:
.LBB515:
.LBB516:
.LBB517:
.LBB518:
	.loc 3 16 13 view .LVU623
	movl	220(%rbx), %esi
.LBE518:
.LBE517:
.LBE516:
.LBE515:
	.loc 3 54 24 view .LVU624
	subss	%xmm0, %xmm6
.LBE514:
.LBE513:
.LBB554:
.LBB510:
	.loc 6 12 38 view .LVU625
	movaps	%xmm0, %xmm2
.LVL165:
	.loc 6 12 38 view .LVU626
.LBE510:
.LBE554:
.LBB555:
.LBI513:
	.loc 3 52 7 is_stmt 1 view .LVU627
.LBB547:
	.loc 3 54 5 view .LVU628
.LBB541:
.LBB535:
.LBB527:
.LBB519:
	.loc 3 16 5 is_stmt 0 view .LVU629
	testl	%esi, %esi
.LBE519:
.LBE527:
.LBE535:
.LBE541:
	.loc 3 54 24 view .LVU630
	movaps	%xmm6, %xmm0
.LVL166:
.LBB542:
.LBI515:
	.loc 3 44 7 is_stmt 1 view .LVU631
.LBB536:
	.loc 3 46 5 view .LVU632
.LBB528:
.LBI517:
	.loc 3 14 5 view .LVU633
.LBB520:
	.loc 3 16 2 view .LVU634
	.loc 3 16 5 is_stmt 0 view .LVU635
	je	.L133
	.loc 3 16 17 view .LVU636
	leal	-1(%rsi), %r13d
.LBE520:
.LBE528:
.LBE536:
.LBE542:
.LBE547:
.LBE555:
.LBE563:
.LBB564:
.LBB565:
.LBB566:
.LBB567:
.LBB568:
.LBB569:
.LBB570:
	subl	$2, %esi
.L127:
.LBE570:
.LBE569:
.LBE568:
.LBE567:
.LBE566:
.LBE565:
.LBE564:
.LBB617:
.LBB556:
.LBB548:
.LBB543:
.LBB537:
.LBB529:
.LBB521:
	.loc 3 17 13 view .LVU637
	movl	224(%rbx), %edi
	movl	%r13d, 220(%rbx)
	.loc 3 17 2 is_stmt 1 view .LVU638
	.loc 3 17 5 is_stmt 0 view .LVU639
	testl	%edi, %edi
	je	.L134
	.loc 3 17 17 view .LVU640
	leal	-1(%rdi), %r12d
.LBE521:
.LBE529:
.LBE537:
.LBE543:
.LBE548:
.LBE556:
.LBE617:
.LBB618:
.LBB597:
.LBB591:
.LBB586:
.LBB581:
.LBB576:
.LBB571:
	subl	$2, %edi
.L128:
.LBE571:
.LBE576:
.LBE581:
.LBE586:
.LBE591:
.LBE597:
.LBE618:
.LBB619:
.LBB557:
.LBB549:
.LBB544:
.LBB538:
.LBB530:
.LBB522:
	.loc 3 18 26 view .LVU641
	movslq	%r13d, %rdx
	.loc 3 18 54 view .LVU642
	movslq	%r12d, %rcx
	movl	%r12d, 224(%rbx)
	.loc 3 18 5 is_stmt 1 view .LVU643
.LBE522:
.LBE530:
	.loc 3 46 32 is_stmt 0 view .LVU644
	pxor	%xmm1, %xmm1
.LBB531:
.LBB523:
	.loc 3 18 9 view .LVU645
	movl	(%rbx,%rdx,4), %eax
	subl	(%rbx,%rcx,4), %eax
.LVL167:
	.loc 3 19 2 is_stmt 1 view .LVU646
.LBE523:
.LBE531:
	.loc 3 46 32 is_stmt 0 view .LVU647
	movss	.LC0(%rip), %xmm8
.LBE538:
.LBE544:
.LBE549:
.LBE557:
.LBE619:
.LBB620:
.LBB598:
.LBB599:
	.loc 6 15 38 view .LVU648
	movss	12(%rbp), %xmm9
.LBE599:
.LBE598:
.LBE620:
.LBB621:
.LBB558:
.LBB550:
.LBB545:
.LBB539:
.LBB532:
.LBB524:
	.loc 3 19 15 view .LVU649
	leal	1000000000(%rax), %ecx
	cmovs	%ecx, %eax
.LVL168:
	.loc 3 20 2 is_stmt 1 view .LVU650
.LBE524:
.LBE532:
	.loc 3 46 32 is_stmt 0 view .LVU651
	cvtsi2ssl	%eax, %xmm1
.LBB533:
.LBB525:
	.loc 3 20 35 view .LVU652
	movl	%eax, (%rbx,%rdx,4)
.LVL169:
	.loc 3 20 35 view .LVU653
.LBE525:
.LBE533:
	.loc 3 46 32 view .LVU654
	divss	%xmm8, %xmm1
.LBE539:
.LBE545:
	.loc 3 54 31 view .LVU655
	mulss	%xmm0, %xmm1
.LBE550:
.LBE558:
.LBE621:
.LBB622:
.LBB604:
.LBB600:
	.loc 6 15 38 view .LVU656
	movaps	%xmm9, %xmm0
.LBE600:
.LBE604:
.LBE622:
.LBB623:
.LBB559:
.LBB551:
	.loc 3 54 16 view .LVU657
	movaps	%xmm1, %xmm6
.LBE551:
.LBE559:
.LBE623:
.LBB624:
.LBB605:
.LBB601:
	.loc 6 15 38 view .LVU658
	movss	4(%rbp), %xmm1
.LBE601:
.LBE605:
.LBE624:
.LBB625:
.LBB560:
.LBB552:
	.loc 3 54 16 view .LVU659
	addss	%xmm2, %xmm6
.LVL170:
	.loc 3 54 16 view .LVU660
.LBE552:
.LBE560:
.LBE625:
.LBB626:
.LBI564:
	.loc 6 18 7 is_stmt 1 view .LVU661
	.loc 6 18 60 view .LVU662
.LBB606:
.LBI598:
	.loc 6 15 7 view .LVU663
.LBB602:
	.loc 6 15 31 view .LVU664
	.loc 6 15 38 is_stmt 0 view .LVU665
	movss	%xmm1, 44(%rsp)
	call	fmaxf
.LVL171:
.LBE602:
.LBE606:
.LBB607:
.LBB608:
	.loc 6 13 38 view .LVU666
	movss	44(%rsp), %xmm1
.LBE608:
.LBE607:
.LBB610:
.LBB603:
	.loc 6 15 38 view .LVU667
	movaps	%xmm0, %xmm7
.LVL172:
	.loc 6 15 38 view .LVU668
.LBE603:
.LBE610:
.LBB611:
.LBI607:
	.loc 6 13 7 is_stmt 1 view .LVU669
.LBB609:
	.loc 6 13 31 view .LVU670
	.loc 6 13 38 is_stmt 0 view .LVU671
	movaps	%xmm9, %xmm0
	call	fminf
.LVL173:
	.loc 6 13 38 view .LVU672
.LBE609:
.LBE611:
.LBB612:
.LBI565:
	.loc 3 52 7 is_stmt 1 view .LVU673
.LBB592:
	.loc 3 54 5 view .LVU674
.LBB587:
.LBB582:
.LBB577:
.LBB572:
	.loc 3 16 32 is_stmt 0 view .LVU675
	movl	$54, %eax
	testl	%r13d, %r13d
.LBE572:
.LBE577:
.LBE582:
.LBE587:
.LBE592:
.LBE612:
.LBE626:
	.loc 6 19 69 view .LVU676
	movaps	%xmm6, %xmm3
.LBB627:
.LBB613:
.LBB593:
.LBB588:
.LBB583:
.LBB578:
.LBB573:
	.loc 3 16 32 view .LVU677
	cmove	%eax, %esi
.LBE573:
.LBE578:
	.loc 3 46 32 view .LVU678
	pxor	%xmm1, %xmm1
.LBE583:
.LBE588:
	.loc 3 54 24 view .LVU679
	subss	%xmm0, %xmm7
.LVL174:
.LBB589:
.LBI567:
	.loc 3 44 7 is_stmt 1 view .LVU680
.LBB584:
	.loc 3 46 5 view .LVU681
.LBB579:
.LBI569:
	.loc 3 14 5 view .LVU682
.LBB574:
	.loc 3 16 2 view .LVU683
	.loc 3 17 32 is_stmt 0 view .LVU684
	testl	%r12d, %r12d
	cmove	%eax, %edi
	movl	%esi, 220(%rbx)
	.loc 3 17 2 is_stmt 1 view .LVU685
	.loc 3 18 26 is_stmt 0 view .LVU686
	movslq	%esi, %rsi
	movl	%edi, 224(%rbx)
	.loc 3 18 5 is_stmt 1 view .LVU687
	.loc 3 18 54 is_stmt 0 view .LVU688
	movslq	%edi, %rdi
	.loc 3 18 9 view .LVU689
	movl	(%rbx,%rsi,4), %eax
	subl	(%rbx,%rdi,4), %eax
.LVL175:
	.loc 3 19 2 is_stmt 1 view .LVU690
	.loc 3 19 15 is_stmt 0 view .LVU691
	leal	1000000000(%rax), %edx
	cmovs	%edx, %eax
.LVL176:
	.loc 3 20 2 is_stmt 1 view .LVU692
.LBE574:
.LBE579:
	.loc 3 46 32 is_stmt 0 view .LVU693
	cvtsi2ssl	%eax, %xmm1
.LBB580:
.LBB575:
	.loc 3 20 35 view .LVU694
	movl	%eax, (%rbx,%rsi,4)
.LVL177:
	.loc 3 20 35 view .LVU695
.LBE575:
.LBE580:
.LBE584:
.LBE589:
.LBE593:
.LBE613:
.LBE627:
	.loc 6 19 158 view .LVU696
	movaps	48(%rsp), %xmm6
	movaps	96(%rsp), %xmm9
.LBB628:
.LBB614:
.LBB594:
.LBB590:
.LBB585:
	.loc 3 46 32 view .LVU697
	divss	%xmm8, %xmm1
.LBE585:
.LBE590:
.LBE594:
.LBE614:
.LBE628:
	.loc 6 19 158 view .LVU698
	movaps	80(%rsp), %xmm8
.LBB629:
.LBB615:
.LBB595:
	.loc 3 54 31 view .LVU699
	mulss	%xmm7, %xmm1
.LBE595:
.LBE615:
.LBE629:
	.loc 6 19 158 view .LVU700
	movaps	64(%rsp), %xmm7
.LBB630:
.LBB616:
.LBB596:
	.loc 3 54 16 view .LVU701
	addss	%xmm0, %xmm1
.LBE596:
.LBE616:
.LBE630:
	.loc 6 19 69 view .LVU702
	unpcklps	%xmm1, %xmm3
	movq	%xmm3, %rax
	.loc 6 19 158 view .LVU703
	addq	$120, %rsp
	.cfi_remember_state
	.cfi_restore 26
	.cfi_restore 25
	.cfi_restore 24
	.cfi_restore 23
	.cfi_def_cfa_offset 56
	popq	%rbx
	.cfi_restore 3
	.cfi_def_cfa_offset 48
.LVL178:
	.loc 6 19 158 view .LVU704
	popq	%rsi
	.cfi_restore 4
	.cfi_def_cfa_offset 40
	popq	%rdi
	.cfi_restore 5
	.cfi_def_cfa_offset 32
	popq	%rbp
	.cfi_restore 6
	.cfi_def_cfa_offset 24
.LVL179:
	.loc 6 19 158 view .LVU705
	popq	%r12
	.cfi_restore 12
	.cfi_def_cfa_offset 16
	popq	%r13
	.cfi_restore 13
	.cfi_def_cfa_offset 8
	ret
.LVL180:
	.p2align 4,,10
	.p2align 3
.L133:
	.cfi_restore_state
.LBB631:
.LBB561:
.LBB553:
.LBB546:
.LBB540:
.LBB534:
.LBB526:
	.loc 6 19 158 view .LVU706
	movl	$53, %esi
	.loc 3 16 32 view .LVU707
	movl	$54, %r13d
	jmp	.L127
	.p2align 4,,10
	.p2align 3
.L134:
	.loc 3 16 32 view .LVU708
	movl	$53, %edi
	.loc 3 17 32 view .LVU709
	movl	$54, %r12d
	jmp	.L128
.LBE526:
.LBE534:
.LBE540:
.LBE546:
.LBE553:
.LBE561:
.LBE631:
	.cfi_endproc
.LFE108:
	.seh_endproc
	.p2align 4
	.globl	AABB_WrapAround
	.def	AABB_WrapAround;	.scl	2;	.type	32;	.endef
	.seh_proc	AABB_WrapAround
AABB_WrapAround:
.LVL181:
.LFB109:
	.loc 6 21 1 is_stmt 1 view -0
	.cfi_startproc
	.loc 6 21 1 is_stmt 0 view .LVU711
	subq	$168, %rsp
	.seh_stackalloc	168
	.cfi_def_cfa_offset 176
	movaps	%xmm6, 32(%rsp)
	.seh_savexmm	%xmm6, 32
	movaps	%xmm7, 48(%rsp)
	.seh_savexmm	%xmm7, 48
	movaps	%xmm8, 64(%rsp)
	.seh_savexmm	%xmm8, 64
	movaps	%xmm9, 80(%rsp)
	.seh_savexmm	%xmm9, 80
	movaps	%xmm10, 96(%rsp)
	.seh_savexmm	%xmm10, 96
	movaps	%xmm11, 112(%rsp)
	.seh_savexmm	%xmm11, 112
	movaps	%xmm12, 128(%rsp)
	.seh_savexmm	%xmm12, 128
	movaps	%xmm13, 144(%rsp)
	.seh_savexmm	%xmm13, 144
	.cfi_offset 23, -144
	.cfi_offset 24, -128
	.cfi_offset 25, -112
	.cfi_offset 26, -96
	.cfi_offset 27, -80
	.cfi_offset 28, -64
	.cfi_offset 29, -48
	.cfi_offset 30, -32
	.seh_endprologue
.LBB646:
.LBB647:
.LBB648:
.LBB649:
	.loc 5 51 77 view .LVU712
	movss	.LC8(%rip), %xmm0
	movss	(%rcx), %xmm9
	movss	4(%rcx), %xmm8
	movss	8(%rcx), %xmm10
.LBE649:
.LBE648:
.LBB651:
.LBB652:
	.loc 5 48 82 view .LVU713
	movaps	%xmm9, %xmm12
	movss	12(%rcx), %xmm11
	.loc 5 48 96 view .LVU714
	movaps	%xmm8, %xmm13
	.loc 5 48 82 view .LVU715
	subss	%xmm10, %xmm12
	movd	%edx, %xmm7
.LBE652:
.LBE651:
.LBE647:
.LBE646:
.LBB660:
.LBB661:
	.loc 6 12 38 view .LVU716
	movaps	%xmm10, %xmm1
.LBE661:
.LBE660:
.LBB663:
.LBB658:
.LBB655:
.LBB653:
	.loc 5 48 96 view .LVU717
	subss	%xmm11, %xmm13
	shrq	$32, %rdx
.LVL182:
	.loc 5 48 96 view .LVU718
	movd	%edx, %xmm6
.LBE653:
.LBE655:
.LBE658:
.LBE663:
	.loc 6 22 5 is_stmt 1 view .LVU719
.LVL183:
.LBB664:
.LBI646:
	.loc 6 16 11 view .LVU720
.LBB659:
	.loc 6 16 35 view .LVU721
.LBB656:
.LBI651:
	.loc 5 48 11 view .LVU722
.LBB654:
	.loc 5 48 56 view .LVU723
	.loc 5 48 56 is_stmt 0 view .LVU724
.LBE654:
.LBE656:
	.loc 6 16 86 is_stmt 1 view .LVU725
.LBB657:
.LBI648:
	.loc 5 51 11 view .LVU726
.LBB650:
	.loc 5 51 56 view .LVU727
	.loc 5 51 77 is_stmt 0 view .LVU728
	andps	%xmm0, %xmm12
.LVL184:
	.loc 5 51 89 view .LVU729
	andps	%xmm0, %xmm13
.LVL185:
	.loc 5 51 89 view .LVU730
.LBE650:
.LBE657:
.LBE659:
.LBE664:
	.loc 6 23 5 is_stmt 1 view .LVU731
.LBB665:
.LBI660:
	.loc 6 12 7 view .LVU732
.LBB662:
	.loc 6 12 31 view .LVU733
	.loc 6 12 38 is_stmt 0 view .LVU734
	movaps	%xmm9, %xmm0
	call	fminf
.LVL186:
	.loc 6 12 38 view .LVU735
.LBE662:
.LBE665:
	.loc 6 23 13 view .LVU736
	comiss	%xmm7, %xmm0
	jbe	.L148
	.loc 6 23 41 is_stmt 1 discriminator 1 view .LVU737
	.loc 6 23 49 is_stmt 0 discriminator 1 view .LVU738
	addss	%xmm12, %xmm7
.L138:
	.loc 6 25 5 is_stmt 1 view .LVU739
.LVL187:
.LBB666:
.LBI666:
	.loc 6 13 7 view .LVU740
.LBB667:
	.loc 6 13 31 view .LVU741
	.loc 6 13 38 is_stmt 0 view .LVU742
	movaps	%xmm11, %xmm1
	movaps	%xmm8, %xmm0
	call	fminf
.LVL188:
	.loc 6 13 38 view .LVU743
.LBE667:
.LBE666:
	.loc 6 25 13 view .LVU744
	comiss	%xmm6, %xmm0
	jbe	.L149
	.loc 6 25 41 is_stmt 1 discriminator 1 view .LVU745
	.loc 6 25 49 is_stmt 0 discriminator 1 view .LVU746
	addss	%xmm13, %xmm6
.L142:
	.loc 6 27 5 is_stmt 1 view .LVU747
	.loc 6 27 12 is_stmt 0 view .LVU748
	movaps	%xmm7, %xmm2
	.loc 6 28 1 view .LVU749
	movaps	64(%rsp), %xmm8
	.loc 6 27 12 view .LVU750
	unpcklps	%xmm6, %xmm2
	.loc 6 28 1 view .LVU751
	movaps	48(%rsp), %xmm7
	.loc 6 27 12 view .LVU752
	movq	%xmm2, %rax
.LVL189:
	.loc 6 28 1 view .LVU753
	movaps	32(%rsp), %xmm6
	movaps	80(%rsp), %xmm9
	movaps	96(%rsp), %xmm10
	movaps	112(%rsp), %xmm11
	movaps	128(%rsp), %xmm12
	movaps	144(%rsp), %xmm13
	addq	$168, %rsp
	.cfi_remember_state
	.cfi_restore 30
	.cfi_restore 29
	.cfi_restore 28
	.cfi_restore 27
	.cfi_restore 26
	.cfi_restore 25
	.cfi_restore 24
	.cfi_restore 23
	.cfi_def_cfa_offset 8
	ret
.LVL190:
	.p2align 4,,10
	.p2align 3
.L148:
	.cfi_restore_state
	.loc 6 24 10 is_stmt 1 view .LVU754
.LBB668:
.LBI668:
	.loc 6 14 7 view .LVU755
.LBB669:
	.loc 6 14 31 view .LVU756
	.loc 6 14 38 is_stmt 0 view .LVU757
	movaps	%xmm10, %xmm1
	movaps	%xmm9, %xmm0
	call	fmaxf
.LVL191:
	.loc 6 14 38 view .LVU758
.LBE669:
.LBE668:
	.loc 6 24 13 view .LVU759
	comiss	%xmm0, %xmm7
	jbe	.L138
	.loc 6 24 41 is_stmt 1 discriminator 1 view .LVU760
	.loc 6 24 49 is_stmt 0 discriminator 1 view .LVU761
	subss	%xmm12, %xmm7
	jmp	.L138
	.p2align 4,,10
	.p2align 3
.L149:
	.loc 6 26 10 is_stmt 1 view .LVU762
.LVL192:
.LBB670:
.LBI670:
	.loc 6 15 7 view .LVU763
.LBB671:
	.loc 6 15 31 view .LVU764
	.loc 6 15 38 is_stmt 0 view .LVU765
	movaps	%xmm11, %xmm1
	movaps	%xmm8, %xmm0
	call	fmaxf
.LVL193:
	.loc 6 15 38 view .LVU766
.LBE671:
.LBE670:
	.loc 6 26 13 view .LVU767
	comiss	%xmm0, %xmm6
	jbe	.L142
	.loc 6 26 41 is_stmt 1 discriminator 1 view .LVU768
	.loc 6 26 49 is_stmt 0 discriminator 1 view .LVU769
	subss	%xmm13, %xmm6
	jmp	.L142
	.cfi_endproc
.LFE109:
	.seh_endproc
	.p2align 4
	.globl	Boid_PrintBoid
	.def	Boid_PrintBoid;	.scl	2;	.type	32;	.endef
	.seh_proc	Boid_PrintBoid
Boid_PrintBoid:
.LVL194:
.LFB110:
	.file 7 "GameWorldTest/../GameWorld/Boid1.h"
	.loc 7 30 1 is_stmt 1 view -0
	.cfi_startproc
	.loc 7 30 1 is_stmt 0 view .LVU771
	pushq	%rdi
	.seh_pushreg	%rdi
	.cfi_def_cfa_offset 16
	.cfi_offset 5, -16
	pushq	%rsi
	.seh_pushreg	%rsi
	.cfi_def_cfa_offset 24
	.cfi_offset 4, -24
	pushq	%rbx
	.seh_pushreg	%rbx
	.cfi_def_cfa_offset 32
	.cfi_offset 3, -32
	subq	$32, %rsp
	.seh_stackalloc	32
	.cfi_def_cfa_offset 64
	.seh_endprologue
	.loc 7 31 5 is_stmt 1 view .LVU772
.LVL195:
.LBB672:
.LBB673:
.LBB674:
	.loc 4 11 5 is_stmt 0 view .LVU773
	leaq	.LC2(%rip), %rsi
	movl	4(%rcx), %edi
.LVL196:
	.loc 4 11 5 view .LVU774
.LBE674:
.LBE673:
.LBI672:
	.loc 5 21 6 is_stmt 1 view .LVU775
	.loc 5 23 5 view .LVU776
.LBB677:
.LBI673:
	.loc 4 7 6 view .LVU777
.LBB675:
	.loc 4 9 5 view .LVU778
	.loc 4 10 5 view .LVU779
	.loc 4 11 5 view .LVU780
	movl	(%rcx), %edx
.LBE675:
.LBE677:
.LBE672:
	.loc 7 30 1 is_stmt 0 view .LVU781
	movq	%rcx, %rbx
.LBB681:
.LBB678:
.LBB676:
	.loc 4 11 5 view .LVU782
	movq	%rsi, %rcx
.LVL197:
	.loc 4 11 5 view .LVU783
	call	printf
.LVL198:
	.loc 4 11 5 view .LVU784
.LBE676:
.LBE678:
	.loc 5 24 5 is_stmt 1 view .LVU785
.LBB679:
.LBI679:
	.loc 4 7 6 view .LVU786
.LBB680:
	.loc 4 9 5 view .LVU787
	.loc 4 10 5 view .LVU788
	.loc 4 11 5 view .LVU789
	movl	%edi, %edx
	movq	%rsi, %rcx
	call	printf
.LVL199:
	.loc 4 11 5 is_stmt 0 view .LVU790
.LBE680:
.LBE679:
.LBE681:
	.loc 7 32 5 is_stmt 1 view .LVU791
	.loc 7 32 5 is_stmt 0 view .LVU792
	movl	12(%rbx), %edi
.LVL200:
.LBB682:
.LBI682:
	.loc 5 21 6 is_stmt 1 view .LVU793
	.loc 5 23 5 view .LVU794
.LBB683:
.LBI683:
	.loc 4 7 6 view .LVU795
.LBB684:
	.loc 4 9 5 view .LVU796
	.loc 4 10 5 view .LVU797
	.loc 4 11 5 view .LVU798
	movq	%rsi, %rcx
	movl	8(%rbx), %edx
	call	printf
.LVL201:
	.loc 4 11 5 is_stmt 0 view .LVU799
.LBE684:
.LBE683:
	.loc 5 24 5 is_stmt 1 view .LVU800
.LBB685:
.LBI685:
	.loc 4 7 6 view .LVU801
.LBB686:
	.loc 4 9 5 view .LVU802
	.loc 4 10 5 view .LVU803
	.loc 4 11 5 view .LVU804
	movl	%edi, %edx
	movq	%rsi, %rcx
.LBE686:
.LBE685:
.LBE682:
	.loc 7 33 1 is_stmt 0 view .LVU805
	addq	$32, %rsp
	.cfi_def_cfa_offset 32
	popq	%rbx
	.cfi_restore 3
	.cfi_def_cfa_offset 24
.LVL202:
	.loc 7 33 1 view .LVU806
	popq	%rsi
	.cfi_restore 4
	.cfi_def_cfa_offset 16
	popq	%rdi
	.cfi_restore 5
	.cfi_def_cfa_offset 8
.LVL203:
.LBB689:
.LBB688:
.LBB687:
	.loc 4 11 5 view .LVU807
	jmp	printf
.LVL204:
	.loc 4 11 5 view .LVU808
.LBE687:
.LBE688:
.LBE689:
	.cfi_endproc
.LFE110:
	.seh_endproc
	.p2align 4
	.globl	Boid_InitCatche
	.def	Boid_InitCatche;	.scl	2;	.type	32;	.endef
	.seh_proc	Boid_InitCatche
Boid_InitCatche:
.LVL205:
.LFB111:
	.loc 7 35 1 is_stmt 1 view -0
	.cfi_startproc
	.loc 7 35 1 is_stmt 0 view .LVU810
	.seh_endprologue
	.loc 7 36 5 is_stmt 1 view .LVU811
	.loc 7 37 5 view .LVU812
	.loc 7 36 19 is_stmt 0 view .LVU813
	movq	$0, 16(%rcx)
	movq	$0, 24(%rcx)
	.loc 7 38 5 is_stmt 1 view .LVU814
	.loc 7 38 19 is_stmt 0 view .LVU815
	movq	$0, 32(%rcx)
	.loc 7 39 5 is_stmt 1 view .LVU816
	.loc 7 40 5 view .LVU817
	.loc 7 39 19 is_stmt 0 view .LVU818
	movq	$0, 40(%rcx)
	.loc 7 41 1 view .LVU819
	ret
	.cfi_endproc
.LFE111:
	.seh_endproc
	.p2align 4
	.globl	Boid_Create
	.def	Boid_Create;	.scl	2;	.type	32;	.endef
	.seh_proc	Boid_Create
Boid_Create:
.LVL206:
.LFB112:
	.loc 7 43 1 is_stmt 1 view -0
	.cfi_startproc
	.loc 7 43 1 is_stmt 0 view .LVU821
	pushq	%r14
	.seh_pushreg	%r14
	.cfi_def_cfa_offset 16
	.cfi_offset 14, -16
	pushq	%r13
	.seh_pushreg	%r13
	.cfi_def_cfa_offset 24
	.cfi_offset 13, -24
	pushq	%r12
	.seh_pushreg	%r12
	.cfi_def_cfa_offset 32
	.cfi_offset 12, -32
	pushq	%rbp
	.seh_pushreg	%rbp
	.cfi_def_cfa_offset 40
	.cfi_offset 6, -40
	pushq	%rdi
	.seh_pushreg	%rdi
	.cfi_def_cfa_offset 48
	.cfi_offset 5, -48
	pushq	%rsi
	.seh_pushreg	%rsi
	.cfi_def_cfa_offset 56
	.cfi_offset 4, -56
	pushq	%rbx
	.seh_pushreg	%rbx
	.cfi_def_cfa_offset 64
	.cfi_offset 3, -64
	subq	$160, %rsp
	.seh_stackalloc	160
	.cfi_def_cfa_offset 224
	movaps	%xmm6, 48(%rsp)
	.seh_savexmm	%xmm6, 48
	movaps	%xmm7, 64(%rsp)
	.seh_savexmm	%xmm7, 64
	movaps	%xmm8, 80(%rsp)
	.seh_savexmm	%xmm8, 80
	movaps	%xmm9, 96(%rsp)
	.seh_savexmm	%xmm9, 96
	movaps	%xmm10, 112(%rsp)
	.seh_savexmm	%xmm10, 112
	movaps	%xmm11, 128(%rsp)
	.seh_savexmm	%xmm11, 128
	movaps	%xmm12, 144(%rsp)
	.seh_savexmm	%xmm12, 144
	.cfi_offset 23, -176
	.cfi_offset 24, -160
	.cfi_offset 25, -144
	.cfi_offset 26, -128
	.cfi_offset 27, -112
	.cfi_offset 28, -96
	.cfi_offset 29, -80
	.seh_endprologue
	.loc 7 43 1 view .LVU822
	movq	%rcx, %rsi
	.loc 7 44 5 is_stmt 1 view .LVU823
.LVL207:
.LBB750:
.LBI750:
	.loc 3 52 7 view .LVU824
.LBB751:
	.loc 3 54 5 view .LVU825
.LBB752:
.LBI752:
	.loc 3 44 7 view .LVU826
.LBB753:
	.loc 3 46 5 view .LVU827
.LBB754:
.LBI754:
	.loc 3 14 5 view .LVU828
.LBB755:
	.loc 3 16 2 view .LVU829
	.loc 3 16 13 is_stmt 0 view .LVU830
	movl	220(%r8), %ecx
.LVL208:
	.loc 3 16 13 view .LVU831
.LBE755:
.LBE754:
.LBE753:
.LBE752:
.LBE751:
.LBE750:
	.loc 7 43 1 view .LVU832
	movq	%rdx, %rdi
	movq	%r8, %rbx
.LBB790:
.LBB784:
.LBB778:
.LBB772:
.LBB764:
.LBB756:
	.loc 3 16 5 view .LVU833
	testl	%ecx, %ecx
	je	.L171
	.loc 3 16 17 view .LVU834
	leal	-1(%rcx), %r10d
.LBE756:
.LBE764:
.LBE772:
.LBE778:
.LBE784:
.LBE790:
.LBB791:
.LBB792:
.LBB793:
.LBB794:
.LBB795:
.LBB796:
.LBB797:
.LBB798:
	subl	$2, %ecx
.L153:
.LBE798:
.LBE797:
.LBE796:
.LBE795:
.LBE794:
.LBE793:
.LBE792:
.LBE791:
.LBB911:
.LBB785:
.LBB779:
.LBB773:
.LBB765:
.LBB757:
	.loc 3 17 2 is_stmt 1 view .LVU835
	.loc 3 17 13 is_stmt 0 view .LVU836
	movl	224(%rbx), %edx
.LVL209:
	.loc 3 17 5 view .LVU837
	testl	%edx, %edx
	je	.L172
	.loc 3 17 17 view .LVU838
	leal	-1(%rdx), %r9d
.LBE757:
.LBE765:
.LBE773:
.LBE779:
.LBE785:
.LBE911:
.LBB912:
.LBB903:
.LBB835:
.LBB829:
.LBB822:
.LBB815:
.LBB807:
.LBB799:
	subl	$2, %edx
.L154:
.LBE799:
.LBE807:
.LBE815:
.LBE822:
.LBE829:
.LBE835:
.LBE903:
.LBE912:
.LBB913:
.LBB786:
.LBB780:
.LBB774:
.LBB766:
.LBB758:
	.loc 3 18 5 is_stmt 1 view .LVU839
.LBE758:
.LBE766:
	.loc 3 46 32 is_stmt 0 view .LVU840
	pxor	%xmm8, %xmm8
.LBB767:
.LBB759:
	.loc 3 18 26 view .LVU841
	movslq	%r10d, %r11
	.loc 3 18 54 view .LVU842
	movslq	%r9d, %r8
.LVL210:
	.loc 3 18 54 view .LVU843
.LBE759:
.LBE767:
	.loc 3 46 32 view .LVU844
	movss	.LC0(%rip), %xmm9
.LBB768:
.LBB760:
	.loc 3 18 9 view .LVU845
	movl	(%rbx,%r11,4), %eax
.LBE760:
.LBE768:
.LBE774:
.LBE780:
.LBE786:
.LBE913:
.LBB914:
.LBB904:
.LBB836:
.LBB837:
.LBB838:
.LBB839:
.LBB840:
.LBB841:
	.loc 3 16 17 view .LVU846
	leal	-1(%rcx), %r12d
.LBE841:
.LBE840:
.LBE839:
.LBE838:
.LBE837:
.LBE836:
.LBE904:
.LBE914:
.LBB915:
.LBB787:
.LBB781:
.LBB775:
.LBB769:
.LBB761:
	.loc 3 18 9 view .LVU847
	subl	(%rbx,%r8,4), %eax
.LVL211:
	.loc 3 19 2 is_stmt 1 view .LVU848
	.loc 3 19 15 is_stmt 0 view .LVU849
	leal	1000000000(%rax), %r8d
	cmovs	%r8d, %eax
.LVL212:
	.loc 3 20 2 is_stmt 1 view .LVU850
.LBE761:
.LBE769:
.LBE775:
.LBE781:
.LBE787:
.LBE915:
.LBB916:
.LBB905:
.LBB874:
.LBB830:
.LBB823:
.LBB816:
.LBB808:
.LBB800:
	.loc 3 16 5 is_stmt 0 view .LVU851
	testl	%r10d, %r10d
.LBE800:
.LBE808:
.LBE816:
.LBE823:
.LBE830:
.LBE874:
.LBE905:
.LBE916:
.LBB917:
.LBB788:
.LBB782:
.LBB776:
	.loc 3 46 32 view .LVU852
	cvtsi2ssl	%eax, %xmm8
.LBB770:
.LBB762:
	.loc 3 20 35 view .LVU853
	movl	%eax, (%rbx,%r11,4)
.LVL213:
	.loc 3 20 35 view .LVU854
.LBE762:
.LBE770:
	.loc 3 46 32 view .LVU855
	divss	%xmm9, %xmm8
.LBE776:
.LBE782:
	.loc 3 54 31 view .LVU856
	mulss	.LC9(%rip), %xmm8
	.loc 3 54 16 view .LVU857
	addss	.LC10(%rip), %xmm8
.LVL214:
	.loc 3 54 16 view .LVU858
.LBE788:
.LBE917:
	.loc 7 45 5 is_stmt 1 view .LVU859
.LBB918:
.LBI791:
	.loc 5 59 11 view .LVU860
.LBB906:
	.loc 5 61 5 view .LVU861
.LBB875:
.LBI793:
	.loc 3 48 7 view .LVU862
.LBB831:
	.loc 3 50 5 view .LVU863
.LBB824:
.LBI795:
	.loc 3 44 7 view .LVU864
.LBB817:
	.loc 3 46 5 view .LVU865
.LBB809:
.LBI797:
	.loc 3 14 5 view .LVU866
.LBB801:
	.loc 3 16 2 view .LVU867
	.loc 3 16 5 is_stmt 0 view .LVU868
	jne	.L156
	movl	$53, %r12d
	.loc 3 16 32 view .LVU869
	movl	$54, %ecx
.L156:
	.loc 3 17 2 is_stmt 1 view .LVU870
.LBE801:
.LBE809:
.LBE817:
.LBE824:
.LBE831:
.LBE875:
.LBB876:
.LBB868:
.LBB862:
.LBB856:
.LBB849:
.LBB842:
	.loc 3 17 17 is_stmt 0 view .LVU871
	leal	-1(%rdx), %ebp
.LBE842:
.LBE849:
.LBE856:
.LBE862:
.LBE868:
.LBE876:
.LBB877:
.LBB832:
.LBB825:
.LBB818:
.LBB810:
.LBB802:
	.loc 3 17 5 view .LVU872
	testl	%r9d, %r9d
	jne	.L157
	movl	$53, %ebp
	.loc 3 17 32 view .LVU873
	movl	$54, %edx
.L157:
	.loc 3 18 5 is_stmt 1 view .LVU874
.LBE802:
.LBE810:
	.loc 3 46 32 is_stmt 0 view .LVU875
	pxor	%xmm7, %xmm7
.LBB811:
.LBB803:
	.loc 3 18 26 view .LVU876
	movslq	%ecx, %r9
	.loc 3 18 54 view .LVU877
	movslq	%edx, %r8
.LBE803:
.LBE811:
.LBE818:
.LBE825:
	.loc 3 50 48 view .LVU878
	movss	.LC1(%rip), %xmm10
.LBB826:
.LBB819:
.LBB812:
.LBB804:
	.loc 3 18 9 view .LVU879
	movl	(%rbx,%r9,4), %eax
.LBE804:
.LBE812:
.LBE819:
.LBE826:
.LBE832:
.LBE877:
.LBE906:
.LBE918:
.LBB919:
.LBB920:
.LBB921:
.LBB922:
.LBB923:
.LBB924:
.LBB925:
.LBB926:
	.loc 3 16 17 view .LVU880
	leal	-1(%r12), %r14d
.LBE926:
.LBE925:
.LBE924:
.LBE923:
.LBE922:
.LBE921:
.LBE920:
.LBE919:
.LBB1068:
.LBB907:
.LBB878:
.LBB833:
.LBB827:
.LBB820:
.LBB813:
.LBB805:
	.loc 3 18 9 view .LVU881
	subl	(%rbx,%r8,4), %eax
.LVL215:
	.loc 3 19 2 is_stmt 1 view .LVU882
	.loc 3 19 15 is_stmt 0 view .LVU883
	leal	1000000000(%rax), %r8d
	cmovs	%r8d, %eax
.LVL216:
	.loc 3 20 2 is_stmt 1 view .LVU884
.LBE805:
.LBE813:
.LBE820:
.LBE827:
.LBE833:
.LBE878:
.LBB879:
.LBB869:
.LBB863:
.LBB857:
.LBB850:
.LBB843:
	.loc 3 16 5 is_stmt 0 view .LVU885
	testl	%ecx, %ecx
.LBE843:
.LBE850:
.LBE857:
.LBE863:
.LBE869:
.LBE879:
.LBB880:
.LBB834:
.LBB828:
.LBB821:
	.loc 3 46 32 view .LVU886
	cvtsi2ssl	%eax, %xmm7
.LBB814:
.LBB806:
	.loc 3 20 35 view .LVU887
	movl	%eax, (%rbx,%r9,4)
.LVL217:
	.loc 3 20 35 view .LVU888
.LBE806:
.LBE814:
	.loc 3 46 32 view .LVU889
	divss	%xmm9, %xmm7
.LBE821:
.LBE828:
	.loc 3 50 44 view .LVU890
	addss	%xmm7, %xmm7
	.loc 3 50 48 view .LVU891
	subss	%xmm10, %xmm7
.LVL218:
	.loc 3 50 48 view .LVU892
.LBE834:
.LBE880:
	.loc 5 62 5 is_stmt 1 view .LVU893
.LBB881:
.LBI836:
	.loc 3 48 7 view .LVU894
.LBB870:
	.loc 3 50 5 view .LVU895
.LBB864:
.LBI838:
	.loc 3 44 7 view .LVU896
.LBB858:
	.loc 3 46 5 view .LVU897
.LBB851:
.LBI840:
	.loc 3 14 5 view .LVU898
.LBB844:
	.loc 3 16 2 view .LVU899
	.loc 3 16 5 is_stmt 0 view .LVU900
	jne	.L159
	movl	$53, %r14d
	.loc 3 16 32 view .LVU901
	movl	$54, %r12d
.L159:
	.loc 3 16 32 view .LVU902
	movl	%r12d, 220(%rbx)
	.loc 3 17 2 is_stmt 1 view .LVU903
.LBE844:
.LBE851:
.LBE858:
.LBE864:
.LBE870:
.LBE881:
.LBE907:
.LBE1068:
.LBB1069:
.LBB993:
.LBB973:
.LBB963:
.LBB954:
.LBB945:
.LBB936:
.LBB927:
	.loc 3 17 17 is_stmt 0 view .LVU904
	leal	-1(%rbp), %r13d
.LBE927:
.LBE936:
.LBE945:
.LBE954:
.LBE963:
.LBE973:
.LBE993:
.LBE1069:
.LBB1070:
.LBB908:
.LBB882:
.LBB871:
.LBB865:
.LBB859:
.LBB852:
.LBB845:
	.loc 3 17 5 view .LVU905
	testl	%edx, %edx
	jne	.L160
	movl	$53, %r13d
	.loc 3 17 32 view .LVU906
	movl	$54, %ebp
.L160:
	.loc 3 18 26 view .LVU907
	movslq	%r12d, %rcx
	.loc 3 18 54 view .LVU908
	movslq	%ebp, %rdx
	movl	%ebp, 224(%rbx)
	.loc 3 18 5 is_stmt 1 view .LVU909
.LBE845:
.LBE852:
.LBE859:
.LBE865:
.LBE871:
.LBE882:
.LBB883:
.LBB884:
.LBB885:
.LBB886:
	.loc 5 29 11 is_stmt 0 view .LVU910
	movaps	%xmm7, %xmm0
.LBE886:
.LBE885:
.LBE884:
.LBE883:
.LBB897:
.LBB872:
.LBB866:
.LBB860:
.LBB853:
.LBB846:
	.loc 3 18 9 view .LVU911
	movl	(%rbx,%rcx,4), %eax
.LBE846:
.LBE853:
	.loc 3 46 32 view .LVU912
	pxor	%xmm6, %xmm6
.LBE860:
.LBE866:
.LBE872:
.LBE897:
.LBB898:
.LBB893:
.LBB890:
.LBB887:
	.loc 5 29 11 view .LVU913
	mulss	%xmm7, %xmm0
.LBE887:
.LBE890:
.LBE893:
.LBE898:
.LBB899:
.LBB873:
.LBB867:
.LBB861:
.LBB854:
.LBB847:
	.loc 3 18 9 view .LVU914
	subl	(%rbx,%rdx,4), %eax
.LVL219:
	.loc 3 19 2 is_stmt 1 view .LVU915
	.loc 3 19 15 is_stmt 0 view .LVU916
	leal	1000000000(%rax), %edx
	cmovs	%edx, %eax
.LVL220:
	.loc 3 20 2 is_stmt 1 view .LVU917
.LBE847:
.LBE854:
	.loc 3 46 32 is_stmt 0 view .LVU918
	cvtsi2ssl	%eax, %xmm6
.LBB855:
.LBB848:
	.loc 3 20 35 view .LVU919
	movl	%eax, (%rbx,%rcx,4)
.LVL221:
	.loc 3 20 35 view .LVU920
.LBE848:
.LBE855:
	.loc 3 46 32 view .LVU921
	divss	%xmm9, %xmm6
.LBE861:
.LBE867:
	.loc 3 50 44 view .LVU922
	addss	%xmm6, %xmm6
	.loc 3 50 48 view .LVU923
	subss	%xmm10, %xmm6
.LVL222:
	.loc 3 50 48 view .LVU924
.LBE873:
.LBE899:
	.loc 5 63 5 is_stmt 1 view .LVU925
	.loc 5 64 5 view .LVU926
.LBB900:
.LBI883:
	.loc 5 53 11 view .LVU927
.LBB894:
	.loc 5 55 5 view .LVU928
.LBB891:
.LBI885:
	.loc 5 27 7 view .LVU929
.LBB888:
	.loc 5 29 5 view .LVU930
	.loc 5 29 38 is_stmt 0 view .LVU931
	movaps	%xmm6, %xmm1
	mulss	%xmm6, %xmm1
	.loc 5 29 11 view .LVU932
	addss	%xmm1, %xmm0
.LVL223:
	.loc 5 30 5 is_stmt 1 view .LVU933
	pxor	%xmm1, %xmm1
	ucomiss	%xmm0, %xmm1
	ja	.L180
	.loc 5 30 18 is_stmt 0 view .LVU934
	sqrtss	%xmm0, %xmm0
.LVL224:
.L164:
	.loc 5 31 5 is_stmt 1 view .LVU935
	.loc 5 31 5 is_stmt 0 view .LVU936
.LBE888:
.LBE891:
	.loc 5 56 5 is_stmt 1 view .LVU937
	.loc 5 56 11 is_stmt 0 view .LVU938
	divss	%xmm0, %xmm10
.LVL225:
	.loc 5 57 5 is_stmt 1 view .LVU939
.LBE894:
.LBE900:
.LBE908:
.LBE1070:
.LBB1071:
.LBB994:
.LBB974:
.LBB975:
	.loc 6 14 38 is_stmt 0 view .LVU940
	movss	8(%rdi), %xmm11
	movss	(%rdi), %xmm1
	movaps	%xmm11, %xmm0
	movss	%xmm1, 44(%rsp)
	call	fmaxf
.LVL226:
.LBE975:
.LBE974:
.LBB977:
.LBB978:
	.loc 6 12 38 view .LVU941
	movss	44(%rsp), %xmm1
.LBE978:
.LBE977:
.LBE994:
.LBE1071:
.LBB1072:
.LBB909:
.LBB901:
.LBB895:
	.loc 5 57 29 view .LVU942
	mulss	%xmm10, %xmm7
.LVL227:
	.loc 5 57 37 view .LVU943
	mulss	%xmm10, %xmm6
.LVL228:
	.loc 5 57 37 view .LVU944
.LBE895:
.LBE901:
.LBE909:
.LBE1072:
	.loc 7 47 5 is_stmt 1 view .LVU945
.LBB1073:
.LBI919:
	.loc 6 19 11 view .LVU946
	.loc 6 19 62 view .LVU947
.LBB995:
.LBI920:
	.loc 6 17 7 view .LVU948
	.loc 6 17 60 view .LVU949
.LBB981:
.LBI974:
	.loc 6 14 7 view .LVU950
.LBB976:
	.loc 6 14 31 view .LVU951
	.loc 6 14 38 is_stmt 0 view .LVU952
	movaps	%xmm0, %xmm10
.LVL229:
	.loc 6 14 38 view .LVU953
.LBE976:
.LBE981:
.LBB982:
.LBI977:
	.loc 6 12 7 is_stmt 1 view .LVU954
.LBB979:
	.loc 6 12 31 view .LVU955
	.loc 6 12 38 is_stmt 0 view .LVU956
	movaps	%xmm11, %xmm0
	call	fminf
.LVL230:
.LBE979:
.LBE982:
.LBB983:
.LBB964:
.LBB955:
.LBB946:
.LBB937:
.LBB928:
	.loc 3 16 5 view .LVU957
	testl	%r12d, %r12d
.LBE928:
.LBE937:
.LBE946:
.LBE955:
.LBE964:
.LBE983:
.LBB984:
.LBB980:
	.loc 6 12 38 view .LVU958
	movaps	%xmm0, %xmm2
.LVL231:
	.loc 6 12 38 view .LVU959
.LBE980:
.LBE984:
.LBB985:
.LBI921:
	.loc 3 52 7 is_stmt 1 view .LVU960
.LBB965:
	.loc 3 54 5 view .LVU961
	.loc 3 54 24 is_stmt 0 view .LVU962
	movaps	%xmm10, %xmm0
.LVL232:
	.loc 3 54 24 view .LVU963
	subss	%xmm2, %xmm0
.LVL233:
.LBB956:
.LBI923:
	.loc 3 44 7 is_stmt 1 view .LVU964
.LBB947:
	.loc 3 46 5 view .LVU965
.LBB938:
.LBI925:
	.loc 3 14 5 view .LVU966
.LBB929:
	.loc 3 16 2 view .LVU967
	.loc 3 16 5 is_stmt 0 view .LVU968
	je	.L177
.LBE929:
.LBE938:
.LBE947:
.LBE956:
.LBE965:
.LBE985:
.LBE995:
.LBB996:
.LBB997:
.LBB998:
.LBB999:
.LBB1000:
.LBB1001:
.LBB1002:
	.loc 3 16 17 view .LVU969
	leal	-1(%r14), %r12d
.L165:
	.loc 3 16 17 view .LVU970
.LBE1002:
.LBE1001:
.LBE1000:
.LBE999:
.LBE998:
.LBE997:
.LBE996:
.LBB1053:
.LBB986:
.LBB966:
.LBB957:
.LBB948:
.LBB939:
.LBB930:
	.loc 3 17 5 view .LVU971
	testl	%ebp, %ebp
	movl	%r14d, 220(%rbx)
	.loc 3 17 2 is_stmt 1 view .LVU972
	.loc 3 17 5 is_stmt 0 view .LVU973
	je	.L178
.LBE930:
.LBE939:
.LBE948:
.LBE957:
.LBE966:
.LBE986:
.LBE1053:
.LBB1054:
.LBB1035:
.LBB1029:
.LBB1023:
.LBB1017:
.LBB1010:
.LBB1003:
	.loc 3 17 17 view .LVU974
	leal	-1(%r13), %ebp
.L166:
.LBE1003:
.LBE1010:
.LBE1017:
.LBE1023:
.LBE1029:
.LBE1035:
.LBE1054:
.LBB1055:
.LBB987:
.LBB967:
.LBB958:
.LBB949:
	.loc 3 46 32 view .LVU975
	pxor	%xmm1, %xmm1
.LBE949:
.LBE958:
.LBE967:
.LBE987:
.LBE1055:
.LBE1073:
.LBB1074:
.LBB1075:
	.loc 5 49 82 view .LVU976
	mulss	%xmm8, %xmm7
.LBE1075:
.LBE1074:
.LBB1078:
.LBB1056:
.LBB988:
.LBB968:
.LBB959:
.LBB950:
.LBB940:
.LBB931:
	.loc 3 18 26 view .LVU977
	movslq	%r14d, %rdx
	.loc 3 18 54 view .LVU978
	movslq	%r13d, %rcx
	movl	%r13d, 224(%rbx)
	.loc 3 18 5 is_stmt 1 view .LVU979
	.loc 3 18 9 is_stmt 0 view .LVU980
	movl	(%rbx,%rdx,4), %eax
.LBE931:
.LBE940:
.LBE950:
.LBE959:
.LBE968:
.LBE988:
.LBE1056:
.LBE1078:
.LBB1079:
.LBB1076:
	.loc 5 49 96 view .LVU981
	mulss	%xmm6, %xmm8
.LVL234:
	.loc 5 49 96 view .LVU982
.LBE1076:
.LBE1079:
.LBB1080:
.LBB1057:
.LBB989:
.LBB969:
.LBB960:
.LBB951:
.LBB941:
.LBB932:
	.loc 3 18 9 view .LVU983
	subl	(%rbx,%rcx,4), %eax
.LVL235:
	.loc 3 19 2 is_stmt 1 view .LVU984
.LBE932:
.LBE941:
.LBE951:
.LBE960:
.LBE969:
.LBE989:
.LBE1057:
.LBB1058:
.LBB1036:
.LBB1037:
	.loc 6 15 38 is_stmt 0 view .LVU985
	movss	12(%rdi), %xmm11
.LBE1037:
.LBE1036:
.LBE1058:
.LBE1080:
	.loc 7 56 12 view .LVU986
	unpcklps	%xmm8, %xmm7
.LBB1081:
.LBB1059:
.LBB990:
.LBB970:
.LBB961:
.LBB952:
.LBB942:
.LBB933:
	.loc 3 19 15 view .LVU987
	leal	1000000000(%rax), %ecx
	cmovs	%ecx, %eax
.LVL236:
	.loc 3 20 2 is_stmt 1 view .LVU988
.LBE933:
.LBE942:
	.loc 3 46 32 is_stmt 0 view .LVU989
	cvtsi2ssl	%eax, %xmm1
.LBB943:
.LBB934:
	.loc 3 20 35 view .LVU990
	movl	%eax, (%rbx,%rdx,4)
.LVL237:
	.loc 3 20 35 view .LVU991
.LBE934:
.LBE943:
	.loc 3 46 32 view .LVU992
	divss	%xmm9, %xmm1
.LBE952:
.LBE961:
	.loc 3 54 31 view .LVU993
	mulss	%xmm0, %xmm1
.LBE970:
.LBE990:
.LBE1059:
.LBB1060:
.LBB1041:
.LBB1038:
	.loc 6 15 38 view .LVU994
	movaps	%xmm11, %xmm0
.LBE1038:
.LBE1041:
.LBE1060:
.LBB1061:
.LBB991:
.LBB971:
	.loc 3 54 16 view .LVU995
	addss	%xmm2, %xmm1
	movaps	%xmm1, %xmm10
.LVL238:
	.loc 3 54 16 view .LVU996
.LBE971:
.LBE991:
.LBE1061:
.LBB1062:
.LBI996:
	.loc 6 18 7 is_stmt 1 view .LVU997
	.loc 6 18 60 view .LVU998
.LBB1042:
.LBI1036:
	.loc 6 15 7 view .LVU999
.LBB1039:
	.loc 6 15 31 view .LVU1000
	.loc 6 15 38 is_stmt 0 view .LVU1001
	movss	4(%rdi), %xmm1
	movss	%xmm1, 44(%rsp)
	call	fmaxf
.LVL239:
.LBE1039:
.LBE1042:
.LBB1043:
.LBB1044:
	.loc 6 13 38 view .LVU1002
	movss	44(%rsp), %xmm1
.LBE1044:
.LBE1043:
.LBB1046:
.LBB1040:
	.loc 6 15 38 view .LVU1003
	movaps	%xmm0, %xmm12
.LVL240:
	.loc 6 15 38 view .LVU1004
.LBE1040:
.LBE1046:
.LBB1047:
.LBI1043:
	.loc 6 13 7 is_stmt 1 view .LVU1005
.LBB1045:
	.loc 6 13 31 view .LVU1006
	.loc 6 13 38 is_stmt 0 view .LVU1007
	movaps	%xmm11, %xmm0
	call	fminf
.LVL241:
	.loc 6 13 38 view .LVU1008
.LBE1045:
.LBE1047:
.LBB1048:
.LBI997:
	.loc 3 52 7 is_stmt 1 view .LVU1009
.LBB1030:
	.loc 3 54 5 view .LVU1010
.LBB1024:
.LBB1018:
.LBB1011:
.LBB1004:
	.loc 3 16 32 is_stmt 0 view .LVU1011
	testl	%r14d, %r14d
	movl	$54, %eax
.LBE1004:
.LBE1011:
	.loc 3 46 32 view .LVU1012
	pxor	%xmm1, %xmm1
.LBB1012:
.LBB1005:
	.loc 3 16 32 view .LVU1013
	cmove	%eax, %r12d
	.loc 3 17 32 view .LVU1014
	testl	%r13d, %r13d
.LBE1005:
.LBE1012:
.LBE1018:
.LBE1024:
	.loc 3 54 24 view .LVU1015
	movaps	%xmm12, %xmm2
.LBE1030:
.LBE1048:
.LBE1062:
.LBE1081:
	.loc 7 56 12 view .LVU1016
	movlps	%xmm7, 8(%rsi)
.LBB1082:
.LBB1063:
.LBB1049:
.LBB1031:
.LBB1025:
.LBB1019:
.LBB1013:
.LBB1006:
	.loc 3 17 32 view .LVU1017
	cmove	%eax, %ebp
.LBE1006:
.LBE1013:
.LBE1019:
.LBE1025:
.LBE1031:
.LBE1049:
.LBE1063:
.LBE1082:
	.loc 7 56 12 view .LVU1018
	movq	$0, 16(%rsi)
	movl	%r12d, 220(%rbx)
.LBB1083:
.LBB1064:
.LBB1050:
.LBB1032:
	.loc 3 54 24 view .LVU1019
	subss	%xmm0, %xmm2
.LVL242:
.LBB1026:
.LBI999:
	.loc 3 44 7 is_stmt 1 view .LVU1020
.LBB1020:
	.loc 3 46 5 view .LVU1021
.LBB1014:
.LBI1001:
	.loc 3 14 5 view .LVU1022
.LBB1007:
	.loc 3 16 2 view .LVU1023
	.loc 3 17 2 view .LVU1024
	.loc 3 18 26 is_stmt 0 view .LVU1025
	movslq	%r12d, %r12
	movl	%ebp, 224(%rbx)
	.loc 3 18 5 is_stmt 1 view .LVU1026
	.loc 3 18 54 is_stmt 0 view .LVU1027
	movslq	%ebp, %rbp
	.loc 3 18 9 view .LVU1028
	movl	(%rbx,%r12,4), %eax
	subl	(%rbx,%rbp,4), %eax
.LVL243:
	.loc 3 19 2 is_stmt 1 view .LVU1029
.LBE1007:
.LBE1014:
.LBE1020:
.LBE1026:
.LBE1032:
.LBE1050:
.LBE1064:
.LBE1083:
	.loc 7 56 12 is_stmt 0 view .LVU1030
	movq	$0, 24(%rsi)
	movq	$0, 32(%rsi)
	movq	$0, 40(%rsi)
.LBB1084:
.LBB1065:
.LBB1051:
.LBB1033:
.LBB1027:
.LBB1021:
.LBB1015:
.LBB1008:
	.loc 3 19 15 view .LVU1031
	leal	1000000000(%rax), %edx
	cmovs	%edx, %eax
.LVL244:
	.loc 3 20 2 is_stmt 1 view .LVU1032
.LBE1008:
.LBE1015:
	.loc 3 46 32 is_stmt 0 view .LVU1033
	cvtsi2ssl	%eax, %xmm1
.LBB1016:
.LBB1009:
	.loc 3 20 35 view .LVU1034
	movl	%eax, (%rbx,%r12,4)
.LVL245:
	.loc 3 20 35 view .LVU1035
.LBE1009:
.LBE1016:
.LBE1021:
.LBE1027:
.LBE1033:
.LBE1051:
.LBE1065:
.LBE1084:
	.loc 7 48 5 is_stmt 1 view .LVU1036
.LBB1085:
.LBI1074:
	.loc 5 49 11 view .LVU1037
.LBB1077:
	.loc 5 49 56 view .LVU1038
	.loc 5 49 56 is_stmt 0 view .LVU1039
.LBE1077:
.LBE1085:
	.loc 7 50 5 is_stmt 1 view .LVU1040
	.loc 7 51 5 view .LVU1041
	.loc 7 52 5 view .LVU1042
	.loc 7 54 5 view .LVU1043
	.loc 7 56 5 view .LVU1044
	.loc 7 57 1 is_stmt 0 view .LVU1045
	movq	%rsi, %rax
.LBB1086:
.LBB1066:
.LBB1052:
.LBB1034:
.LBB1028:
.LBB1022:
	.loc 3 46 32 view .LVU1046
	divss	%xmm9, %xmm1
.LBE1022:
.LBE1028:
	.loc 3 54 31 view .LVU1047
	mulss	%xmm2, %xmm1
	.loc 3 54 16 view .LVU1048
	addss	%xmm0, %xmm1
.LBE1034:
.LBE1052:
.LBE1066:
.LBE1086:
	.loc 7 56 12 view .LVU1049
	unpcklps	%xmm1, %xmm10
	movlps	%xmm10, (%rsi)
	.loc 7 57 1 view .LVU1050
	movaps	48(%rsp), %xmm6
	movaps	64(%rsp), %xmm7
	movaps	80(%rsp), %xmm8
	movaps	96(%rsp), %xmm9
	movaps	112(%rsp), %xmm10
	movaps	128(%rsp), %xmm11
	movaps	144(%rsp), %xmm12
	addq	$160, %rsp
	.cfi_remember_state
	.cfi_restore 29
	.cfi_restore 28
	.cfi_restore 27
	.cfi_restore 26
	.cfi_restore 25
	.cfi_restore 24
	.cfi_restore 23
	.cfi_def_cfa_offset 64
	popq	%rbx
	.cfi_restore 3
	.cfi_def_cfa_offset 56
.LVL246:
	.loc 7 57 1 view .LVU1051
	popq	%rsi
	.cfi_restore 4
	.cfi_def_cfa_offset 48
.LVL247:
	.loc 7 57 1 view .LVU1052
	popq	%rdi
	.cfi_restore 5
	.cfi_def_cfa_offset 40
.LVL248:
	.loc 7 57 1 view .LVU1053
	popq	%rbp
	.cfi_restore 6
	.cfi_def_cfa_offset 32
	popq	%r12
	.cfi_restore 12
	.cfi_def_cfa_offset 24
	popq	%r13
	.cfi_restore 13
	.cfi_def_cfa_offset 16
	popq	%r14
	.cfi_restore 14
	.cfi_def_cfa_offset 8
	ret
.LVL249:
	.p2align 4,,10
	.p2align 3
.L172:
	.cfi_restore_state
.LBB1087:
.LBB789:
.LBB783:
.LBB777:
.LBB771:
.LBB763:
	.loc 7 57 1 view .LVU1054
	movl	$53, %edx
	.loc 3 17 32 view .LVU1055
	movl	$54, %r9d
	jmp	.L154
.LVL250:
	.p2align 4,,10
	.p2align 3
.L171:
	.loc 3 17 32 view .LVU1056
	movl	$53, %ecx
	.loc 3 16 32 view .LVU1057
	movl	$54, %r10d
	jmp	.L153
.LVL251:
	.p2align 4,,10
	.p2align 3
.L178:
	.loc 3 16 32 view .LVU1058
.LBE763:
.LBE771:
.LBE777:
.LBE783:
.LBE789:
.LBE1087:
.LBB1088:
.LBB1067:
.LBB992:
.LBB972:
.LBB962:
.LBB953:
.LBB944:
.LBB935:
	movl	$53, %ebp
	.loc 3 17 32 view .LVU1059
	movl	$54, %r13d
	jmp	.L166
	.p2align 4,,10
	.p2align 3
.L177:
	.loc 3 17 32 view .LVU1060
	movl	$53, %r12d
	.loc 3 16 32 view .LVU1061
	movl	$54, %r14d
	jmp	.L165
.LVL252:
.L180:
	.loc 3 16 32 view .LVU1062
.LBE935:
.LBE944:
.LBE953:
.LBE962:
.LBE972:
.LBE992:
.LBE1067:
.LBE1088:
.LBB1089:
.LBB910:
.LBB902:
.LBB896:
.LBB892:
.LBB889:
	.loc 5 30 18 view .LVU1063
	call	sqrtf
.LVL253:
	.loc 5 30 18 view .LVU1064
	jmp	.L164
.LBE889:
.LBE892:
.LBE896:
.LBE902:
.LBE910:
.LBE1089:
	.cfi_endproc
.LFE112:
	.seh_endproc
	.p2align 4
	.globl	Boid_UpdateVelocity_1
	.def	Boid_UpdateVelocity_1;	.scl	2;	.type	32;	.endef
	.seh_proc	Boid_UpdateVelocity_1
Boid_UpdateVelocity_1:
.LVL254:
.LFB113:
	.loc 7 59 1 is_stmt 1 view -0
	.cfi_startproc
	.loc 7 59 1 is_stmt 0 view .LVU1066
	subq	$104, %rsp
	.seh_stackalloc	104
	.cfi_def_cfa_offset 112
	movaps	%xmm6, 32(%rsp)
	.seh_savexmm	%xmm6, 32
	movaps	%xmm7, 48(%rsp)
	.seh_savexmm	%xmm7, 48
	movaps	%xmm8, 64(%rsp)
	.seh_savexmm	%xmm8, 64
	movaps	%xmm9, 80(%rsp)
	.seh_savexmm	%xmm9, 80
	.cfi_offset 23, -80
	.cfi_offset 24, -64
	.cfi_offset 25, -48
	.cfi_offset 26, -32
	.seh_endprologue
	.loc 7 60 5 is_stmt 1 view .LVU1067
	movq	(%rcx), %xmm7
.LVL255:
	.loc 7 60 5 is_stmt 0 view .LVU1068
	movq	(%rdx), %xmm8
.LBB1106:
.LBB1107:
	.loc 5 48 82 view .LVU1069
	movaps	%xmm7, %xmm9
	subps	%xmm8, %xmm9
	movshdup	%xmm9, %xmm0
	movaps	%xmm9, %xmm6
.LVL256:
	.loc 5 48 82 view .LVU1070
.LBE1107:
.LBI1106:
	.loc 5 48 11 is_stmt 1 view .LVU1071
.LBB1108:
	.loc 5 48 56 view .LVU1072
	.loc 5 48 56 is_stmt 0 view .LVU1073
.LBE1108:
.LBE1106:
	.loc 7 61 5 is_stmt 1 view .LVU1074
	.loc 7 61 31 is_stmt 0 view .LVU1075
	mulss	%xmm9, %xmm6
	.loc 7 61 47 view .LVU1076
	mulss	%xmm0, %xmm0
	.loc 7 61 11 view .LVU1077
	addss	%xmm0, %xmm6
.LVL257:
	.loc 7 62 5 is_stmt 1 view .LVU1078
	pxor	%xmm0, %xmm0
	ucomiss	%xmm6, %xmm0
	ja	.L190
	.loc 7 62 18 is_stmt 0 view .LVU1079
	movaps	%xmm6, %xmm2
	sqrtss	%xmm2, %xmm2
.LVL258:
.L184:
	.loc 7 65 5 is_stmt 1 view .LVU1080
	.loc 7 65 8 is_stmt 0 view .LVU1081
	comiss	.LC11(%rip), %xmm6
	jnb	.L181
	.loc 7 67 5 is_stmt 1 view .LVU1082
.LVL259:
.LBB1109:
.LBI1109:
	.loc 5 47 11 view .LVU1083
.LBB1110:
	.loc 5 47 56 view .LVU1084
	.loc 5 47 96 is_stmt 0 view .LVU1085
	movshdup	%xmm8, %xmm0
.LBE1110:
.LBE1109:
	.loc 7 67 74 view .LVU1086
	addl	$1, 40(%rcx)
.LBB1112:
.LBB1111:
	.loc 5 47 96 view .LVU1087
	addss	20(%rcx), %xmm0
.LVL260:
	.loc 5 47 82 view .LVU1088
	addss	16(%rcx), %xmm8
.LBE1111:
.LBE1112:
	.loc 7 67 20 view .LVU1089
	movss	%xmm0, 20(%rcx)
	.loc 7 67 60 is_stmt 1 view .LVU1090
	.loc 7 68 5 view .LVU1091
.LVL261:
.LBB1113:
.LBI1113:
	.loc 5 47 11 view .LVU1092
.LBB1114:
	.loc 5 47 56 view .LVU1093
	.loc 5 47 96 is_stmt 0 view .LVU1094
	movshdup	%xmm7, %xmm0
.LBE1114:
.LBE1113:
	.loc 7 67 20 view .LVU1095
	movss	%xmm8, 16(%rcx)
.LVL262:
	.loc 7 68 74 view .LVU1096
	addl	$1, 40(%rdx)
.LBB1116:
.LBB1115:
	.loc 5 47 96 view .LVU1097
	addss	20(%rdx), %xmm0
.LVL263:
	.loc 5 47 82 view .LVU1098
	addss	16(%rdx), %xmm7
.LBE1115:
.LBE1116:
	.loc 7 68 20 view .LVU1099
	movss	%xmm0, 20(%rdx)
	.loc 7 68 60 is_stmt 1 view .LVU1100
	.loc 7 71 5 view .LVU1101
	.loc 7 73 5 view .LVU1102
.LVL264:
.LBB1117:
.LBI1117:
	.loc 5 47 11 view .LVU1103
.LBB1118:
	.loc 5 47 56 view .LVU1104
.LBE1118:
.LBE1117:
	.loc 7 68 20 is_stmt 0 view .LVU1105
	movss	%xmm7, 16(%rdx)
.LVL265:
.LBB1120:
.LBB1119:
	.loc 5 47 96 view .LVU1106
	movss	28(%rcx), %xmm0
	.loc 5 47 82 view .LVU1107
	movss	24(%rcx), %xmm1
	.loc 5 47 96 view .LVU1108
	addss	12(%rdx), %xmm0
.LVL266:
	.loc 5 47 82 view .LVU1109
	addss	8(%rdx), %xmm1
.LBE1119:
.LBE1120:
	.loc 7 73 74 view .LVU1110
	addl	$1, 44(%rcx)
	.loc 7 73 20 view .LVU1111
	movss	%xmm0, 28(%rcx)
	.loc 7 73 60 is_stmt 1 view .LVU1112
	.loc 7 74 5 view .LVU1113
.LVL267:
.LBB1121:
.LBI1121:
	.loc 5 47 11 view .LVU1114
.LBB1122:
	.loc 5 47 56 view .LVU1115
.LBE1122:
.LBE1121:
	.loc 7 73 20 is_stmt 0 view .LVU1116
	movss	%xmm1, 24(%rcx)
.LVL268:
.LBB1124:
.LBB1123:
	.loc 5 47 96 view .LVU1117
	movss	28(%rdx), %xmm0
	.loc 5 47 82 view .LVU1118
	movss	24(%rdx), %xmm1
	.loc 5 47 96 view .LVU1119
	addss	12(%rcx), %xmm0
.LVL269:
	.loc 5 47 82 view .LVU1120
	addss	8(%rcx), %xmm1
.LBE1123:
.LBE1124:
	.loc 7 74 74 view .LVU1121
	addl	$1, 44(%rdx)
	.loc 7 77 8 view .LVU1122
	comiss	.LC12(%rip), %xmm6
	.loc 7 74 20 view .LVU1123
	movss	%xmm0, 28(%rdx)
	.loc 7 74 60 is_stmt 1 view .LVU1124
	.loc 7 77 5 view .LVU1125
	.loc 7 74 20 is_stmt 0 view .LVU1126
	movss	%xmm1, 24(%rdx)
	.loc 7 77 8 view .LVU1127
	jnb	.L181
	.loc 7 79 5 is_stmt 1 view .LVU1128
	.loc 7 79 11 is_stmt 0 view .LVU1129
	movss	.LC1(%rip), %xmm1
	.loc 7 81 11 view .LVU1130
	movss	.LC13(%rip), %xmm0
	.loc 7 79 11 view .LVU1131
	divss	%xmm2, %xmm1
.LVL270:
	.loc 7 80 5 is_stmt 1 view .LVU1132
	.loc 7 81 5 view .LVU1133
	.loc 7 81 11 is_stmt 0 view .LVU1134
	movaps	%xmm0, %xmm3
	subss	%xmm2, %xmm3
.LBB1125:
.LBB1126:
	.loc 5 49 82 view .LVU1135
	movsldup	%xmm3, %xmm3
.LBE1126:
.LBE1125:
	.loc 7 80 46 view .LVU1136
	movsldup	%xmm1, %xmm0
.LBB1129:
.LBB1130:
	.loc 5 47 82 view .LVU1137
	movq	32(%rcx), %xmm1
.LVL271:
	.loc 5 47 82 view .LVU1138
.LBE1130:
.LBE1129:
	.loc 7 80 46 view .LVU1139
	mulps	%xmm9, %xmm0
.LBB1132:
.LBB1127:
	.loc 5 49 82 view .LVU1140
	mulps	%xmm3, %xmm0
.LVL272:
	.loc 5 49 82 view .LVU1141
.LBE1127:
.LBE1132:
	.loc 7 82 5 is_stmt 1 view .LVU1142
.LBB1133:
.LBI1125:
	.loc 5 49 11 view .LVU1143
.LBB1128:
	.loc 5 49 56 view .LVU1144
	.loc 5 49 56 is_stmt 0 view .LVU1145
.LBE1128:
.LBE1133:
	.loc 7 84 5 is_stmt 1 view .LVU1146
.LBB1134:
.LBI1129:
	.loc 5 47 11 view .LVU1147
.LBB1131:
	.loc 5 47 56 view .LVU1148
	.loc 5 47 82 is_stmt 0 view .LVU1149
	addps	%xmm0, %xmm1
.LBE1131:
.LBE1134:
	.loc 7 84 20 view .LVU1150
	movlps	%xmm1, 32(%rcx)
	.loc 7 85 5 is_stmt 1 view .LVU1151
	.loc 7 85 20 is_stmt 0 view .LVU1152
	movq	32(%rdx), %xmm1
	subps	%xmm0, %xmm1
	movlps	%xmm1, 32(%rdx)
.LVL273:
.L181:
	.loc 7 86 1 view .LVU1153
	movaps	32(%rsp), %xmm6
.LVL274:
	.loc 7 86 1 view .LVU1154
	movaps	48(%rsp), %xmm7
	movaps	64(%rsp), %xmm8
	movaps	80(%rsp), %xmm9
.LVL275:
	.loc 7 86 1 view .LVU1155
	addq	$104, %rsp
	.cfi_remember_state
	.cfi_restore 26
	.cfi_restore 25
	.cfi_restore 24
	.cfi_restore 23
	.cfi_def_cfa_offset 8
	ret
.LVL276:
.L190:
	.cfi_restore_state
	.loc 7 62 18 view .LVU1156
	movaps	%xmm6, %xmm0
	movq	%rdx, 120(%rsp)
	movq	%rcx, 112(%rsp)
	call	sqrtf
.LVL277:
	.loc 7 62 18 view .LVU1157
	movq	120(%rsp), %rdx
	movq	112(%rsp), %rcx
	movaps	%xmm0, %xmm2
	jmp	.L184
	.cfi_endproc
.LFE113:
	.seh_endproc
	.p2align 4
	.globl	Boid_UpdateVelocity_2
	.def	Boid_UpdateVelocity_2;	.scl	2;	.type	32;	.endef
	.seh_proc	Boid_UpdateVelocity_2
Boid_UpdateVelocity_2:
.LVL278:
.LFB114:
	.loc 7 88 1 is_stmt 1 view -0
	.cfi_startproc
	.loc 7 88 1 is_stmt 0 view .LVU1159
	subq	$56, %rsp
	.seh_stackalloc	56
	.cfi_def_cfa_offset 64
	movaps	%xmm6, 32(%rsp)
	.seh_savexmm	%xmm6, 32
	.cfi_offset 23, -32
	.seh_endprologue
	.loc 7 89 5 is_stmt 1 view .LVU1160
	.loc 7 89 13 is_stmt 0 view .LVU1161
	movl	40(%rcx), %eax
	movq	16(%rcx), %xmm0
	.loc 7 89 8 view .LVU1162
	testl	%eax, %eax
	je	.L192
	.loc 7 91 9 is_stmt 1 view .LVU1163
	.loc 7 91 23 is_stmt 0 view .LVU1164
	pxor	%xmm1, %xmm1
	cvtsi2ssl	%eax, %xmm1
.LVL279:
.LBB1165:
.LBI1165:
	.loc 5 50 11 is_stmt 1 view .LVU1165
.LBB1166:
	.loc 5 50 56 view .LVU1166
	.loc 5 50 56 is_stmt 0 view .LVU1167
.LBE1166:
.LBE1165:
	.loc 7 92 9 is_stmt 1 view .LVU1168
.LBB1168:
.LBB1167:
	.loc 5 50 82 is_stmt 0 view .LVU1169
	movsldup	%xmm1, %xmm1
.LVL280:
	.loc 5 50 82 view .LVU1170
	movhps	.LC5(%rip), %xmm1
	divps	%xmm1, %xmm0
.LBE1167:
.LBE1168:
.LBB1169:
.LBB1170:
	.loc 5 48 82 view .LVU1171
	movq	(%rcx), %xmm1
	subps	%xmm1, %xmm0
.LVL281:
	.loc 5 48 82 view .LVU1172
.LBE1170:
.LBI1169:
	.loc 5 48 11 is_stmt 1 view .LVU1173
.LBB1171:
	.loc 5 48 56 view .LVU1174
.L192:
	.loc 5 48 56 is_stmt 0 view .LVU1175
.LBE1171:
.LBE1169:
	.loc 7 94 5 is_stmt 1 view .LVU1176
	.loc 7 94 13 is_stmt 0 view .LVU1177
	movl	44(%rcx), %eax
	movq	24(%rcx), %xmm1
	movq	8(%rcx), %xmm3
	.loc 7 94 8 view .LVU1178
	testl	%eax, %eax
	je	.L193
	.loc 7 96 9 is_stmt 1 view .LVU1179
	.loc 7 96 23 is_stmt 0 view .LVU1180
	pxor	%xmm2, %xmm2
	cvtsi2ssl	%eax, %xmm2
.LBB1172:
.LBB1173:
	.loc 5 50 82 view .LVU1181
	movsldup	%xmm2, %xmm2
	movhps	.LC5(%rip), %xmm2
	divps	%xmm2, %xmm1
.LBE1173:
.LBE1172:
.LBB1175:
.LBB1176:
	.loc 5 48 82 view .LVU1182
	subps	%xmm3, %xmm1
.LVL282:
	.loc 5 48 82 view .LVU1183
.LBE1176:
.LBE1175:
.LBB1178:
.LBI1172:
	.loc 5 50 11 is_stmt 1 view .LVU1184
.LBB1174:
	.loc 5 50 56 view .LVU1185
	.loc 5 50 56 is_stmt 0 view .LVU1186
.LBE1174:
.LBE1178:
	.loc 7 97 9 is_stmt 1 view .LVU1187
.LBB1179:
.LBI1175:
	.loc 5 48 11 view .LVU1188
.LBB1177:
	.loc 5 48 56 view .LVU1189
.L193:
	.loc 5 48 56 is_stmt 0 view .LVU1190
.LBE1177:
.LBE1179:
	.loc 7 100 5 is_stmt 1 view .LVU1191
.LBB1180:
.LBI1180:
	.loc 5 49 11 view .LVU1192
.LBB1181:
	.loc 5 49 56 view .LVU1193
	.loc 5 49 56 is_stmt 0 view .LVU1194
.LBE1181:
.LBE1180:
	.loc 7 101 5 is_stmt 1 view .LVU1195
.LBB1184:
.LBI1184:
	.loc 5 49 11 view .LVU1196
.LBB1185:
	.loc 5 49 56 view .LVU1197
	.loc 5 49 56 is_stmt 0 view .LVU1198
.LBE1185:
.LBE1184:
	.loc 7 102 5 is_stmt 1 view .LVU1199
.LBB1187:
.LBB1182:
	.loc 5 49 82 is_stmt 0 view .LVU1200
	movq	.LC14(%rip), %xmm2
	movaps	%xmm0, %xmm6
.LBE1182:
.LBE1187:
.LBB1188:
.LBB1189:
	movq	32(%rcx), %xmm0
.LBE1189:
.LBE1188:
.LBB1192:
.LBB1183:
	mulps	%xmm2, %xmm6
.LBE1183:
.LBE1192:
.LBB1193:
.LBB1186:
	mulps	%xmm2, %xmm1
.LBE1186:
.LBE1193:
.LBB1194:
.LBB1195:
	.loc 5 47 82 view .LVU1201
	addps	%xmm3, %xmm6
.LBE1195:
.LBE1194:
.LBB1197:
.LBB1198:
	addps	%xmm1, %xmm6
.LBE1198:
.LBE1197:
.LBB1200:
.LBB1190:
	.loc 5 49 82 view .LVU1202
	movq	.LC15(%rip), %xmm1
	mulps	%xmm1, %xmm0
.LBE1190:
.LBE1200:
.LBB1201:
.LBB1202:
	.loc 5 47 82 view .LVU1203
	addps	%xmm0, %xmm6
	movshdup	%xmm6, %xmm1
	movaps	%xmm6, %xmm0
.LVL283:
	.loc 5 47 82 view .LVU1204
.LBE1202:
.LBE1201:
.LBB1204:
.LBI1188:
	.loc 5 49 11 is_stmt 1 view .LVU1205
.LBB1191:
	.loc 5 49 56 view .LVU1206
	.loc 5 49 56 is_stmt 0 view .LVU1207
.LBE1191:
.LBE1204:
	.loc 7 104 5 is_stmt 1 view .LVU1208
.LBB1205:
.LBI1194:
	.loc 5 47 11 view .LVU1209
.LBB1196:
	.loc 5 47 56 view .LVU1210
	.loc 5 47 56 is_stmt 0 view .LVU1211
.LBE1196:
.LBE1205:
	.loc 7 105 5 is_stmt 1 view .LVU1212
.LBB1206:
.LBI1197:
	.loc 5 47 11 view .LVU1213
.LBB1199:
	.loc 5 47 56 view .LVU1214
	.loc 5 47 56 is_stmt 0 view .LVU1215
.LBE1199:
.LBE1206:
	.loc 7 106 5 is_stmt 1 view .LVU1216
.LBB1207:
.LBI1201:
	.loc 5 47 11 view .LVU1217
.LBB1203:
	.loc 5 47 56 view .LVU1218
	.loc 5 47 56 is_stmt 0 view .LVU1219
.LBE1203:
.LBE1207:
	.loc 7 108 5 is_stmt 1 view .LVU1220
.LBB1208:
.LBI1208:
	.loc 5 66 11 view .LVU1221
.LBB1209:
	.loc 5 68 5 view .LVU1222
.LBB1210:
.LBI1210:
	.loc 5 27 7 view .LVU1223
.LBB1211:
	.loc 5 29 5 view .LVU1224
	.loc 5 29 28 is_stmt 0 view .LVU1225
	mulss	%xmm6, %xmm0
	.loc 5 29 38 view .LVU1226
	mulss	%xmm1, %xmm1
	.loc 5 29 11 view .LVU1227
	addss	%xmm1, %xmm0
.LVL284:
	.loc 5 30 5 is_stmt 1 view .LVU1228
	pxor	%xmm1, %xmm1
	ucomiss	%xmm0, %xmm1
	ja	.L210
	.loc 5 30 18 is_stmt 0 view .LVU1229
	sqrtss	%xmm0, %xmm0
.LVL285:
.L196:
	.loc 5 31 5 is_stmt 1 view .LVU1230
	.loc 5 31 5 is_stmt 0 view .LVU1231
.LBE1211:
.LBE1210:
	.loc 5 69 5 is_stmt 1 view .LVU1232
	.loc 5 69 8 is_stmt 0 view .LVU1233
	comiss	.LC16(%rip), %xmm0
	ja	.L212
	.loc 5 71 5 is_stmt 1 view .LVU1234
	.loc 5 71 8 is_stmt 0 view .LVU1235
	movss	.LC10(%rip), %xmm1
	comiss	%xmm0, %xmm1
	ja	.L213
.L199:
.LVL286:
	.loc 5 71 8 view .LVU1236
.LBE1209:
.LBE1208:
	.loc 7 108 17 view .LVU1237
	movlps	%xmm6, 8(%rcx)
	.loc 7 110 5 is_stmt 1 view .LVU1238
.LVL287:
.LBB1221:
.LBI1221:
	.loc 7 34 6 view .LVU1239
.LBB1222:
	.loc 7 36 5 view .LVU1240
	.loc 7 37 5 view .LVU1241
	.loc 7 36 19 is_stmt 0 view .LVU1242
	movq	$0, 16(%rcx)
	movq	$0, 24(%rcx)
	.loc 7 38 5 is_stmt 1 view .LVU1243
	.loc 7 38 19 is_stmt 0 view .LVU1244
	movq	$0, 32(%rcx)
	.loc 7 39 5 is_stmt 1 view .LVU1245
	.loc 7 40 5 view .LVU1246
	.loc 7 39 19 is_stmt 0 view .LVU1247
	movq	$0, 40(%rcx)
.LVL288:
	.loc 7 39 19 view .LVU1248
.LBE1222:
.LBE1221:
	.loc 7 111 1 view .LVU1249
	movaps	32(%rsp), %xmm6
	addq	$56, %rsp
	.cfi_remember_state
	.cfi_restore 23
	.cfi_def_cfa_offset 8
	ret
.LVL289:
	.p2align 4,,10
	.p2align 3
.L213:
	.cfi_restore_state
.LBB1223:
.LBB1220:
	.loc 5 72 9 is_stmt 1 view .LVU1250
	.loc 5 72 16 is_stmt 0 view .LVU1251
	divss	%xmm0, %xmm1
.LBB1213:
.LBB1214:
	.loc 5 49 82 view .LVU1252
	movsldup	%xmm1, %xmm1
	mulps	%xmm1, %xmm6
.LVL290:
	.loc 5 49 82 view .LVU1253
.LBE1214:
.LBI1213:
	.loc 5 49 11 is_stmt 1 view .LVU1254
.LBB1215:
	.loc 5 49 56 view .LVU1255
	.loc 5 49 56 is_stmt 0 view .LVU1256
.LBE1215:
.LBE1213:
	.loc 5 72 16 view .LVU1257
	jmp	.L199
	.p2align 4,,10
	.p2align 3
.L212:
	.loc 5 70 9 is_stmt 1 view .LVU1258
	.loc 5 70 16 is_stmt 0 view .LVU1259
	movss	.LC16(%rip), %xmm1
	divss	%xmm0, %xmm1
.LBB1216:
.LBB1217:
	.loc 5 49 82 view .LVU1260
	movsldup	%xmm1, %xmm1
	mulps	%xmm1, %xmm6
.LVL291:
	.loc 5 49 82 view .LVU1261
.LBE1217:
.LBI1216:
	.loc 5 49 11 is_stmt 1 view .LVU1262
.LBB1218:
	.loc 5 49 56 view .LVU1263
	.loc 5 49 56 is_stmt 0 view .LVU1264
.LBE1218:
.LBE1216:
	.loc 5 70 16 view .LVU1265
	jmp	.L199
.LVL292:
.L210:
	.loc 5 70 16 view .LVU1266
	movq	%rcx, 64(%rsp)
.LBB1219:
.LBB1212:
	.loc 5 30 18 view .LVU1267
	call	sqrtf
.LVL293:
	.loc 5 30 18 view .LVU1268
	movq	64(%rsp), %rcx
	jmp	.L196
.LBE1212:
.LBE1219:
.LBE1220:
.LBE1223:
	.cfi_endproc
.LFE114:
	.seh_endproc
	.p2align 4
	.globl	Boid_UpdatePosition
	.def	Boid_UpdatePosition;	.scl	2;	.type	32;	.endef
	.seh_proc	Boid_UpdatePosition
Boid_UpdatePosition:
.LVL294:
.LFB115:
	.loc 7 113 1 is_stmt 1 view -0
	.cfi_startproc
	.loc 7 113 1 is_stmt 0 view .LVU1270
	pushq	%rbx
	.seh_pushreg	%rbx
	.cfi_def_cfa_offset 16
	.cfi_offset 3, -16
	subq	$160, %rsp
	.seh_stackalloc	160
	.cfi_def_cfa_offset 176
	movaps	%xmm6, 32(%rsp)
	.seh_savexmm	%xmm6, 32
	movaps	%xmm7, 48(%rsp)
	.seh_savexmm	%xmm7, 48
	movaps	%xmm8, 64(%rsp)
	.seh_savexmm	%xmm8, 64
	movaps	%xmm9, 80(%rsp)
	.seh_savexmm	%xmm9, 80
	movaps	%xmm10, 96(%rsp)
	.seh_savexmm	%xmm10, 96
	movaps	%xmm11, 112(%rsp)
	.seh_savexmm	%xmm11, 112
	movaps	%xmm12, 128(%rsp)
	.seh_savexmm	%xmm12, 128
	movaps	%xmm13, 144(%rsp)
	.seh_savexmm	%xmm13, 144
	.cfi_offset 23, -144
	.cfi_offset 24, -128
	.cfi_offset 25, -112
	.cfi_offset 26, -96
	.cfi_offset 27, -80
	.cfi_offset 28, -64
	.cfi_offset 29, -48
	.cfi_offset 30, -32
	.seh_endprologue
.LBB1244:
.LBB1245:
.LBB1246:
.LBB1247:
.LBB1248:
.LBB1249:
	.loc 5 51 77 view .LVU1271
	movss	.LC8(%rip), %xmm0
	movss	(%rdx), %xmm9
	movss	4(%rdx), %xmm8
	movss	8(%rdx), %xmm10
.LBE1249:
.LBE1248:
.LBB1252:
.LBB1253:
	.loc 5 48 82 view .LVU1272
	movaps	%xmm9, %xmm12
.LBE1253:
.LBE1252:
.LBE1247:
.LBE1246:
.LBE1245:
.LBE1244:
.LBB1287:
.LBB1288:
	.loc 5 49 82 view .LVU1273
	movss	8(%rcx), %xmm7
.LBE1288:
.LBE1287:
.LBB1292:
.LBB1282:
.LBB1266:
.LBB1262:
.LBB1257:
.LBB1254:
	.loc 5 48 96 view .LVU1274
	movaps	%xmm8, %xmm13
	movss	12(%rdx), %xmm11
	.loc 5 48 82 view .LVU1275
	subss	%xmm10, %xmm12
.LBE1254:
.LBE1257:
.LBE1262:
.LBE1266:
.LBB1267:
.LBB1268:
	.loc 6 12 38 view .LVU1276
	movaps	%xmm10, %xmm1
.LBE1268:
.LBE1267:
.LBE1282:
.LBE1292:
	.loc 7 113 1 view .LVU1277
	movq	%rcx, %rbx
	.loc 7 114 5 is_stmt 1 view .LVU1278
.LVL295:
.LBB1293:
.LBI1287:
	.loc 5 49 11 view .LVU1279
.LBB1289:
	.loc 5 49 56 view .LVU1280
	.loc 5 49 56 is_stmt 0 view .LVU1281
.LBE1289:
.LBE1293:
	.loc 7 115 5 is_stmt 1 view .LVU1282
.LBB1294:
.LBI1294:
	.loc 5 47 11 view .LVU1283
.LBB1295:
	.loc 5 47 56 view .LVU1284
.LBE1295:
.LBE1294:
.LBB1299:
.LBB1290:
	.loc 5 49 82 is_stmt 0 view .LVU1285
	mulss	%xmm2, %xmm7
.LVL296:
	.loc 5 49 82 view .LVU1286
.LBE1290:
.LBE1299:
.LBB1300:
.LBB1296:
	.loc 5 47 96 view .LVU1287
	movss	4(%rcx), %xmm6
.LBE1296:
.LBE1300:
.LBB1301:
.LBB1291:
	.loc 5 49 96 view .LVU1288
	mulss	12(%rcx), %xmm2
.LVL297:
	.loc 5 49 96 view .LVU1289
.LBE1291:
.LBE1301:
.LBB1302:
.LBB1283:
.LBB1271:
.LBB1263:
.LBB1258:
.LBB1255:
	.loc 5 48 96 view .LVU1290
	subss	%xmm11, %xmm13
.LBE1255:
.LBE1258:
.LBE1263:
.LBE1271:
.LBE1283:
.LBE1302:
.LBB1303:
.LBB1297:
	.loc 5 47 82 view .LVU1291
	addss	(%rcx), %xmm7
.LVL298:
	.loc 5 47 82 view .LVU1292
.LBE1297:
.LBE1303:
.LBB1304:
.LBB1284:
.LBB1272:
.LBB1264:
.LBB1259:
.LBB1250:
	.loc 5 51 77 view .LVU1293
	andps	%xmm0, %xmm12
	.loc 5 51 89 view .LVU1294
	andps	%xmm0, %xmm13
.LBE1250:
.LBE1259:
.LBE1264:
.LBE1272:
.LBB1273:
.LBB1269:
	.loc 6 12 38 view .LVU1295
	movaps	%xmm9, %xmm0
.LBE1269:
.LBE1273:
.LBE1284:
.LBE1304:
.LBB1305:
.LBB1298:
	.loc 5 47 96 view .LVU1296
	addss	%xmm2, %xmm6
.LVL299:
	.loc 5 47 96 view .LVU1297
.LBE1298:
.LBE1305:
	.loc 7 116 5 is_stmt 1 view .LVU1298
.LBB1306:
.LBI1244:
	.loc 6 20 11 view .LVU1299
.LBB1285:
	.loc 6 22 5 view .LVU1300
.LBB1274:
.LBI1246:
	.loc 6 16 11 view .LVU1301
.LBB1265:
	.loc 6 16 35 view .LVU1302
.LBB1260:
.LBI1252:
	.loc 5 48 11 view .LVU1303
.LBB1256:
	.loc 5 48 56 view .LVU1304
	.loc 5 48 56 is_stmt 0 view .LVU1305
.LBE1256:
.LBE1260:
	.loc 6 16 86 is_stmt 1 view .LVU1306
.LBB1261:
.LBI1248:
	.loc 5 51 11 view .LVU1307
.LBB1251:
	.loc 5 51 56 view .LVU1308
	.loc 5 51 56 is_stmt 0 view .LVU1309
.LBE1251:
.LBE1261:
.LBE1265:
.LBE1274:
	.loc 6 23 5 is_stmt 1 view .LVU1310
.LBB1275:
.LBI1267:
	.loc 6 12 7 view .LVU1311
.LBB1270:
	.loc 6 12 31 view .LVU1312
	.loc 6 12 38 is_stmt 0 view .LVU1313
	call	fminf
.LVL300:
	.loc 6 12 38 view .LVU1314
.LBE1270:
.LBE1275:
	.loc 6 23 13 view .LVU1315
	comiss	%xmm7, %xmm0
	jbe	.L227
	.loc 6 23 41 is_stmt 1 view .LVU1316
	.loc 6 23 49 is_stmt 0 view .LVU1317
	addss	%xmm12, %xmm7
.LVL301:
.L217:
	.loc 6 25 5 is_stmt 1 view .LVU1318
.LBB1276:
.LBI1276:
	.loc 6 13 7 view .LVU1319
.LBB1277:
	.loc 6 13 31 view .LVU1320
	.loc 6 13 38 is_stmt 0 view .LVU1321
	movaps	%xmm11, %xmm1
	movaps	%xmm8, %xmm0
	call	fminf
.LVL302:
	.loc 6 13 38 view .LVU1322
.LBE1277:
.LBE1276:
	.loc 6 25 13 view .LVU1323
	comiss	%xmm6, %xmm0
	jbe	.L228
	.loc 6 25 41 is_stmt 1 view .LVU1324
	.loc 6 25 49 is_stmt 0 view .LVU1325
	addss	%xmm13, %xmm6
.LVL303:
.L221:
	.loc 6 27 5 is_stmt 1 view .LVU1326
	.loc 6 27 5 is_stmt 0 view .LVU1327
.LBE1285:
.LBE1306:
	.loc 7 116 17 view .LVU1328
	unpcklps	%xmm6, %xmm7
	movlps	%xmm7, (%rbx)
.LVL304:
	.loc 7 117 1 view .LVU1329
	movaps	32(%rsp), %xmm6
	movaps	48(%rsp), %xmm7
	movaps	64(%rsp), %xmm8
	movaps	80(%rsp), %xmm9
	movaps	96(%rsp), %xmm10
	movaps	112(%rsp), %xmm11
	movaps	128(%rsp), %xmm12
	movaps	144(%rsp), %xmm13
	addq	$160, %rsp
	.cfi_remember_state
	.cfi_restore 30
	.cfi_restore 29
	.cfi_restore 28
	.cfi_restore 27
	.cfi_restore 26
	.cfi_restore 25
	.cfi_restore 24
	.cfi_restore 23
	.cfi_def_cfa_offset 16
	popq	%rbx
	.cfi_restore 3
	.cfi_def_cfa_offset 8
.LVL305:
	.loc 7 117 1 view .LVU1330
	ret
.LVL306:
	.p2align 4,,10
	.p2align 3
.L227:
	.cfi_restore_state
.LBB1307:
.LBB1286:
	.loc 6 24 10 is_stmt 1 view .LVU1331
.LBB1278:
.LBI1278:
	.loc 6 14 7 view .LVU1332
.LBB1279:
	.loc 6 14 31 view .LVU1333
	.loc 6 14 38 is_stmt 0 view .LVU1334
	movaps	%xmm10, %xmm1
	movaps	%xmm9, %xmm0
	call	fmaxf
.LVL307:
	.loc 6 14 38 view .LVU1335
.LBE1279:
.LBE1278:
	.loc 6 24 13 view .LVU1336
	comiss	%xmm0, %xmm7
	jbe	.L217
	.loc 6 24 41 is_stmt 1 view .LVU1337
	.loc 6 24 49 is_stmt 0 view .LVU1338
	subss	%xmm12, %xmm7
.LVL308:
	.loc 6 24 49 view .LVU1339
	jmp	.L217
	.p2align 4,,10
	.p2align 3
.L228:
	.loc 6 26 10 is_stmt 1 view .LVU1340
.LVL309:
.LBB1280:
.LBI1280:
	.loc 6 15 7 view .LVU1341
.LBB1281:
	.loc 6 15 31 view .LVU1342
	.loc 6 15 38 is_stmt 0 view .LVU1343
	movaps	%xmm11, %xmm1
	movaps	%xmm8, %xmm0
	call	fmaxf
.LVL310:
	.loc 6 15 38 view .LVU1344
.LBE1281:
.LBE1280:
	.loc 6 26 13 view .LVU1345
	comiss	%xmm0, %xmm6
	jbe	.L221
	.loc 6 26 41 is_stmt 1 view .LVU1346
	.loc 6 26 49 is_stmt 0 view .LVU1347
	subss	%xmm13, %xmm6
.LVL311:
	.loc 6 26 49 view .LVU1348
	jmp	.L221
.LBE1286:
.LBE1307:
	.cfi_endproc
.LFE115:
	.seh_endproc
	.p2align 4
	.globl	Boid_Update
	.def	Boid_Update;	.scl	2;	.type	32;	.endef
	.seh_proc	Boid_Update
Boid_Update:
.LVL312:
.LFB116:
	.loc 7 119 1 is_stmt 1 view -0
	.cfi_startproc
	.loc 7 119 1 is_stmt 0 view .LVU1350
	pushq	%r15
	.seh_pushreg	%r15
	.cfi_def_cfa_offset 16
	.cfi_offset 15, -16
	pushq	%r14
	.seh_pushreg	%r14
	.cfi_def_cfa_offset 24
	.cfi_offset 14, -24
	pushq	%r13
	.seh_pushreg	%r13
	.cfi_def_cfa_offset 32
	.cfi_offset 13, -32
	pushq	%r12
	.seh_pushreg	%r12
	.cfi_def_cfa_offset 40
	.cfi_offset 12, -40
	pushq	%rbp
	.seh_pushreg	%rbp
	.cfi_def_cfa_offset 48
	.cfi_offset 6, -48
	pushq	%rdi
	.seh_pushreg	%rdi
	.cfi_def_cfa_offset 56
	.cfi_offset 5, -56
	pushq	%rsi
	.seh_pushreg	%rsi
	.cfi_def_cfa_offset 64
	.cfi_offset 4, -64
	pushq	%rbx
	.seh_pushreg	%rbx
	.cfi_def_cfa_offset 72
	.cfi_offset 3, -72
	subq	$168, %rsp
	.seh_stackalloc	168
	.cfi_def_cfa_offset 240
	movaps	%xmm6, 32(%rsp)
	.seh_savexmm	%xmm6, 32
	movaps	%xmm7, 48(%rsp)
	.seh_savexmm	%xmm7, 48
	movaps	%xmm8, 64(%rsp)
	.seh_savexmm	%xmm8, 64
	movaps	%xmm9, 80(%rsp)
	.seh_savexmm	%xmm9, 80
	movaps	%xmm10, 96(%rsp)
	.seh_savexmm	%xmm10, 96
	movaps	%xmm11, 112(%rsp)
	.seh_savexmm	%xmm11, 112
	movaps	%xmm12, 128(%rsp)
	.seh_savexmm	%xmm12, 128
	movaps	%xmm13, 144(%rsp)
	.seh_savexmm	%xmm13, 144
	.cfi_offset 23, -208
	.cfi_offset 24, -192
	.cfi_offset 25, -176
	.cfi_offset 26, -160
	.cfi_offset 27, -144
	.cfi_offset 28, -128
	.cfi_offset 29, -112
	.cfi_offset 30, -96
	.seh_endprologue
.LBB1346:
	.loc 7 123 25 view .LVU1351
	xorl	%r15d, %r15d
	.loc 7 123 14 view .LVU1352
	xorl	%r13d, %r13d
.LBB1347:
.LBB1348:
.LBB1349:
	.loc 7 79 11 view .LVU1353
	movss	.LC1(%rip), %xmm10
	.loc 7 81 11 view .LVU1354
	movss	.LC13(%rip), %xmm9
.LBE1349:
.LBE1348:
.LBE1347:
	.loc 7 123 25 view .LVU1355
	testl	%edx, %edx
.LBE1346:
	.loc 7 119 1 view .LVU1356
	movq	%rcx, %r12
	movq	%r8, %rdi
	movsldup	%xmm3, %xmm11
	.loc 7 120 5 is_stmt 1 view .LVU1357
.LVL313:
	.loc 7 123 5 view .LVU1358
.LBB1387:
	.loc 7 123 10 view .LVU1359
	.loc 7 123 25 view .LVU1360
	leaq	48(%rcx), %rsi
	jle	.L229
.LVL314:
	.loc 7 124 5 view .LVU1361
.LBB1383:
	.loc 7 124 10 view .LVU1362
	.loc 7 124 14 is_stmt 0 view .LVU1363
	addl	$1, %r13d
.LVL315:
	.loc 7 124 25 is_stmt 1 view .LVU1364
	cmpl	%r13d, %edx
	jle	.L254
.LVL316:
	.p2align 4,,10
	.p2align 3
.L231:
	.loc 7 124 25 is_stmt 0 view .LVU1365
	leal	-1(%rdx), %eax
	movq	%rsi, %rbx
	pxor	%xmm13, %xmm13
	subl	%r13d, %eax
	addq	%r15, %rax
	leaq	(%rax,%rax,2), %rax
	salq	$4, %rax
	leaq	96(%r12,%rax), %rbp
.LVL317:
	.p2align 4,,10
	.p2align 3
.L241:
	.loc 7 125 9 is_stmt 1 discriminator 3 view .LVU1366
.LBB1381:
.LBI1348:
	.loc 7 58 6 discriminator 3 view .LVU1367
.LBB1379:
	.loc 7 60 5 discriminator 3 view .LVU1368
	movq	-48(%rsi), %xmm7
.LVL318:
	.loc 7 60 5 is_stmt 0 discriminator 3 view .LVU1369
	movq	(%rbx), %xmm8
.LBB1350:
.LBB1351:
	.loc 5 48 82 discriminator 3 view .LVU1370
	movaps	%xmm7, %xmm12
	subps	%xmm8, %xmm12
	movshdup	%xmm12, %xmm0
	movaps	%xmm12, %xmm6
.LVL319:
	.loc 5 48 82 discriminator 3 view .LVU1371
.LBE1351:
.LBI1350:
	.loc 5 48 11 is_stmt 1 discriminator 3 view .LVU1372
.LBB1352:
	.loc 5 48 56 discriminator 3 view .LVU1373
	.loc 5 48 56 is_stmt 0 discriminator 3 view .LVU1374
.LBE1352:
.LBE1350:
	.loc 7 61 5 is_stmt 1 discriminator 3 view .LVU1375
	.loc 7 61 31 is_stmt 0 discriminator 3 view .LVU1376
	mulss	%xmm12, %xmm6
	.loc 7 61 47 discriminator 3 view .LVU1377
	mulss	%xmm0, %xmm0
	.loc 7 61 11 discriminator 3 view .LVU1378
	addss	%xmm0, %xmm6
.LVL320:
	.loc 7 62 5 is_stmt 1 discriminator 3 view .LVU1379
	ucomiss	%xmm6, %xmm13
	ja	.L252
	.loc 7 62 18 is_stmt 0 view .LVU1380
	movaps	%xmm6, %xmm1
	sqrtss	%xmm1, %xmm1
.LVL321:
.L236:
	.loc 7 65 5 is_stmt 1 discriminator 3 view .LVU1381
	.loc 7 65 8 is_stmt 0 discriminator 3 view .LVU1382
	comiss	.LC11(%rip), %xmm6
	jnb	.L239
	.loc 7 67 5 is_stmt 1 discriminator 3 view .LVU1383
.LVL322:
.LBB1353:
.LBI1353:
	.loc 5 47 11 discriminator 3 view .LVU1384
.LBB1354:
	.loc 5 47 56 discriminator 3 view .LVU1385
	.loc 5 47 96 is_stmt 0 discriminator 3 view .LVU1386
	movshdup	%xmm8, %xmm0
.LBE1354:
.LBE1353:
	.loc 7 67 74 discriminator 3 view .LVU1387
	addl	$1, -8(%rsi)
.LBB1356:
.LBB1355:
	.loc 5 47 96 discriminator 3 view .LVU1388
	addss	-28(%rsi), %xmm0
.LVL323:
	.loc 5 47 82 discriminator 3 view .LVU1389
	addss	-32(%rsi), %xmm8
.LBE1355:
.LBE1356:
	.loc 7 67 20 discriminator 3 view .LVU1390
	movss	%xmm0, -28(%rsi)
	.loc 7 67 60 is_stmt 1 discriminator 3 view .LVU1391
	.loc 7 68 5 discriminator 3 view .LVU1392
.LVL324:
.LBB1357:
.LBI1357:
	.loc 5 47 11 discriminator 3 view .LVU1393
.LBB1358:
	.loc 5 47 56 discriminator 3 view .LVU1394
	.loc 5 47 96 is_stmt 0 discriminator 3 view .LVU1395
	movshdup	%xmm7, %xmm0
.LBE1358:
.LBE1357:
	.loc 7 67 20 discriminator 3 view .LVU1396
	movss	%xmm8, -32(%rsi)
.LVL325:
	.loc 7 68 74 discriminator 3 view .LVU1397
	addl	$1, 40(%rbx)
.LBB1360:
.LBB1359:
	.loc 5 47 96 discriminator 3 view .LVU1398
	addss	20(%rbx), %xmm0
.LVL326:
	.loc 5 47 82 discriminator 3 view .LVU1399
	addss	16(%rbx), %xmm7
.LBE1359:
.LBE1360:
	.loc 7 68 20 discriminator 3 view .LVU1400
	movss	%xmm0, 20(%rbx)
	.loc 7 68 60 is_stmt 1 discriminator 3 view .LVU1401
	.loc 7 71 5 discriminator 3 view .LVU1402
	.loc 7 73 5 discriminator 3 view .LVU1403
.LVL327:
.LBB1361:
.LBI1361:
	.loc 5 47 11 discriminator 3 view .LVU1404
.LBB1362:
	.loc 5 47 56 discriminator 3 view .LVU1405
.LBE1362:
.LBE1361:
	.loc 7 68 20 is_stmt 0 discriminator 3 view .LVU1406
	movss	%xmm7, 16(%rbx)
.LVL328:
.LBB1364:
.LBB1363:
	.loc 5 47 96 discriminator 3 view .LVU1407
	movss	-20(%rsi), %xmm0
	.loc 5 47 82 discriminator 3 view .LVU1408
	movss	-24(%rsi), %xmm2
	.loc 5 47 96 discriminator 3 view .LVU1409
	addss	12(%rbx), %xmm0
.LVL329:
	.loc 5 47 82 discriminator 3 view .LVU1410
	addss	8(%rbx), %xmm2
.LBE1363:
.LBE1364:
	.loc 7 73 74 discriminator 3 view .LVU1411
	addl	$1, -4(%rsi)
	.loc 7 73 20 discriminator 3 view .LVU1412
	movss	%xmm0, -20(%rsi)
	.loc 7 73 60 is_stmt 1 discriminator 3 view .LVU1413
	.loc 7 74 5 discriminator 3 view .LVU1414
.LVL330:
.LBB1365:
.LBI1365:
	.loc 5 47 11 discriminator 3 view .LVU1415
.LBB1366:
	.loc 5 47 56 discriminator 3 view .LVU1416
.LBE1366:
.LBE1365:
	.loc 7 73 20 is_stmt 0 discriminator 3 view .LVU1417
	movss	%xmm2, -24(%rsi)
.LVL331:
.LBB1368:
.LBB1367:
	.loc 5 47 96 discriminator 3 view .LVU1418
	movss	28(%rbx), %xmm0
	.loc 5 47 82 discriminator 3 view .LVU1419
	movss	24(%rbx), %xmm2
	.loc 5 47 96 discriminator 3 view .LVU1420
	addss	-36(%rsi), %xmm0
.LVL332:
	.loc 5 47 82 discriminator 3 view .LVU1421
	addss	-40(%rsi), %xmm2
.LBE1367:
.LBE1368:
	.loc 7 74 74 discriminator 3 view .LVU1422
	addl	$1, 44(%rbx)
	.loc 7 77 8 discriminator 3 view .LVU1423
	comiss	.LC12(%rip), %xmm6
	.loc 7 74 20 discriminator 3 view .LVU1424
	movss	%xmm0, 28(%rbx)
	.loc 7 74 60 is_stmt 1 discriminator 3 view .LVU1425
	.loc 7 77 5 discriminator 3 view .LVU1426
	.loc 7 74 20 is_stmt 0 discriminator 3 view .LVU1427
	movss	%xmm2, 24(%rbx)
	.loc 7 77 8 discriminator 3 view .LVU1428
	jnb	.L239
	.loc 7 79 5 is_stmt 1 view .LVU1429
	.loc 7 79 11 is_stmt 0 view .LVU1430
	movaps	%xmm10, %xmm0
	.loc 7 81 11 view .LVU1431
	movaps	%xmm9, %xmm2
	.loc 7 79 11 view .LVU1432
	divss	%xmm1, %xmm0
.LVL333:
	.loc 7 80 5 is_stmt 1 view .LVU1433
	.loc 7 81 5 view .LVU1434
	.loc 7 81 11 is_stmt 0 view .LVU1435
	subss	%xmm1, %xmm2
.LBB1369:
.LBB1370:
	.loc 5 47 82 view .LVU1436
	movq	-16(%rsi), %xmm1
.LBE1370:
.LBE1369:
.LBB1372:
.LBB1373:
	.loc 5 49 82 view .LVU1437
	movsldup	%xmm2, %xmm2
.LBE1373:
.LBE1372:
	.loc 7 80 46 view .LVU1438
	movsldup	%xmm0, %xmm0
.LVL334:
	.loc 7 80 46 view .LVU1439
	mulps	%xmm12, %xmm0
.LBB1376:
.LBB1374:
	.loc 5 49 82 view .LVU1440
	mulps	%xmm2, %xmm0
.LVL335:
	.loc 5 49 82 view .LVU1441
.LBE1374:
.LBE1376:
	.loc 7 82 5 is_stmt 1 view .LVU1442
.LBB1377:
.LBI1372:
	.loc 5 49 11 view .LVU1443
.LBB1375:
	.loc 5 49 56 view .LVU1444
	.loc 5 49 56 is_stmt 0 view .LVU1445
.LBE1375:
.LBE1377:
	.loc 7 84 5 is_stmt 1 view .LVU1446
.LBB1378:
.LBI1369:
	.loc 5 47 11 view .LVU1447
.LBB1371:
	.loc 5 47 56 view .LVU1448
	.loc 5 47 82 is_stmt 0 view .LVU1449
	addps	%xmm0, %xmm1
.LBE1371:
.LBE1378:
	.loc 7 84 20 view .LVU1450
	movlps	%xmm1, -16(%rsi)
	.loc 7 85 5 is_stmt 1 view .LVU1451
	.loc 7 85 20 is_stmt 0 view .LVU1452
	movq	32(%rbx), %xmm1
	subps	%xmm0, %xmm1
	movlps	%xmm1, 32(%rbx)
.LVL336:
.L239:
	.loc 7 85 20 view .LVU1453
.LBE1379:
.LBE1381:
	.loc 7 124 36 is_stmt 1 view .LVU1454
	.loc 7 124 25 view .LVU1455
	addq	$48, %rbx
.LVL337:
	.loc 7 124 25 is_stmt 0 view .LVU1456
	cmpq	%rbp, %rbx
	jne	.L241
.LVL338:
.L253:
	.loc 7 124 25 view .LVU1457
.LBE1383:
	.loc 7 123 25 is_stmt 1 view .LVU1458
.LBB1384:
	.loc 7 124 14 is_stmt 0 view .LVU1459
	addl	$1, %r13d
.LVL339:
	.loc 7 124 14 view .LVU1460
.LBE1384:
	.loc 7 123 25 view .LVU1461
	addq	$1, %r15
	addq	$48, %rsi
.LVL340:
	.loc 7 124 5 is_stmt 1 view .LVU1462
.LBB1385:
	.loc 7 124 10 view .LVU1463
	.loc 7 124 25 view .LVU1464
	cmpl	%r13d, %edx
	jg	.L231
.L254:
.LVL341:
	.loc 7 124 25 is_stmt 0 view .LVU1465
.LBE1385:
	.loc 7 123 25 is_stmt 1 view .LVU1466
	jne	.L253
	.loc 7 123 25 is_stmt 0 view .LVU1467
	movslq	%edx, %r14
	movq	%r12, %rbx
	leaq	(%r14,%r14,2), %rsi
	salq	$4, %rsi
	addq	%r12, %rsi
	.p2align 4,,10
	.p2align 3
.L243:
.LVL342:
	.loc 7 123 25 view .LVU1468
.LBE1387:
.LBB1388:
	.loc 7 128 9 is_stmt 1 discriminator 3 view .LVU1469
	movq	%rbx, %rcx
	.loc 7 127 23 is_stmt 0 discriminator 3 view .LVU1470
	addq	$48, %rbx
.LVL343:
	.loc 7 128 9 discriminator 3 view .LVU1471
	call	Boid_UpdateVelocity_2
.LVL344:
	.loc 7 127 34 is_stmt 1 discriminator 3 view .LVU1472
	.loc 7 127 23 discriminator 3 view .LVU1473
	cmpq	%rbx, %rsi
	jne	.L243
.LVL345:
	.p2align 4,,10
	.p2align 3
.L244:
	.loc 7 127 23 is_stmt 0 discriminator 3 view .LVU1474
.LBE1388:
.LBB1389:
	.loc 7 131 9 is_stmt 1 discriminator 3 view .LVU1475
.LBB1390:
.LBI1390:
	.loc 7 112 6 discriminator 3 view .LVU1476
.LBB1391:
	.loc 7 114 5 discriminator 3 view .LVU1477
.LBB1392:
.LBI1392:
	.loc 5 49 11 discriminator 3 view .LVU1478
.LBB1393:
	.loc 5 49 56 discriminator 3 view .LVU1479
	.loc 5 49 56 is_stmt 0 discriminator 3 view .LVU1480
.LBE1393:
.LBE1392:
	.loc 7 115 5 is_stmt 1 discriminator 3 view .LVU1481
.LBB1396:
.LBI1396:
	.loc 5 47 11 discriminator 3 view .LVU1482
.LBB1397:
	.loc 5 47 56 discriminator 3 view .LVU1483
	.loc 5 47 56 is_stmt 0 discriminator 3 view .LVU1484
.LBE1397:
.LBE1396:
.LBB1400:
.LBB1394:
	.loc 5 49 82 discriminator 3 view .LVU1485
	movq	8(%r12), %xmm0
.LBE1394:
.LBE1400:
	.loc 7 116 17 discriminator 3 view .LVU1486
	movq	%rdi, %rcx
.LBE1391:
.LBE1390:
	.loc 7 130 23 discriminator 3 view .LVU1487
	addq	$48, %r12
.LVL346:
.LBB1405:
.LBB1404:
.LBB1401:
.LBB1398:
	.loc 5 47 82 discriminator 3 view .LVU1488
	movq	-48(%r12), %xmm1
.LBE1398:
.LBE1401:
.LBB1402:
.LBB1395:
	.loc 5 49 82 discriminator 3 view .LVU1489
	mulps	%xmm11, %xmm0
.LBE1395:
.LBE1402:
.LBB1403:
.LBB1399:
	.loc 5 47 82 discriminator 3 view .LVU1490
	addps	%xmm1, %xmm0
	movq	%xmm0, %rax
.LBE1399:
.LBE1403:
	.loc 7 115 17 discriminator 3 view .LVU1491
	movlps	%xmm0, -48(%r12)
	.loc 7 116 5 is_stmt 1 discriminator 3 view .LVU1492
	.loc 7 115 17 is_stmt 0 discriminator 3 view .LVU1493
	movq	%rax, %rdx
	.loc 7 116 17 discriminator 3 view .LVU1494
	call	AABB_WrapAround
.LVL347:
	.loc 7 116 17 discriminator 3 view .LVU1495
	movq	%rax, -48(%r12)
.LVL348:
	.loc 7 116 17 discriminator 3 view .LVU1496
.LBE1404:
.LBE1405:
	.loc 7 130 34 is_stmt 1 discriminator 3 view .LVU1497
	.loc 7 130 23 discriminator 3 view .LVU1498
	cmpq	%r12, %rsi
	jne	.L244
.LVL349:
.L229:
	.loc 7 130 23 is_stmt 0 discriminator 3 view .LVU1499
.LBE1389:
	.loc 7 132 1 view .LVU1500
	movaps	32(%rsp), %xmm6
	movaps	48(%rsp), %xmm7
	movaps	64(%rsp), %xmm8
	movaps	80(%rsp), %xmm9
	movaps	96(%rsp), %xmm10
	movaps	112(%rsp), %xmm11
	movaps	128(%rsp), %xmm12
	movaps	144(%rsp), %xmm13
	addq	$168, %rsp
	.cfi_remember_state
	.cfi_restore 30
	.cfi_restore 29
	.cfi_restore 28
	.cfi_restore 27
	.cfi_restore 26
	.cfi_restore 25
	.cfi_restore 24
	.cfi_restore 23
	.cfi_def_cfa_offset 72
	popq	%rbx
	.cfi_restore 3
	.cfi_def_cfa_offset 64
	popq	%rsi
	.cfi_restore 4
	.cfi_def_cfa_offset 56
	popq	%rdi
	.cfi_restore 5
	.cfi_def_cfa_offset 48
.LVL350:
	.loc 7 132 1 view .LVU1501
	popq	%rbp
	.cfi_restore 6
	.cfi_def_cfa_offset 40
	popq	%r12
	.cfi_restore 12
	.cfi_def_cfa_offset 32
	popq	%r13
	.cfi_restore 13
	.cfi_def_cfa_offset 24
	popq	%r14
	.cfi_restore 14
	.cfi_def_cfa_offset 16
	popq	%r15
	.cfi_restore 15
	.cfi_def_cfa_offset 8
	ret
.LVL351:
.L252:
	.cfi_restore_state
.LBB1406:
.LBB1386:
.LBB1382:
.LBB1380:
	.loc 7 62 18 discriminator 3 view .LVU1502
	movaps	%xmm6, %xmm0
	movl	%edx, 248(%rsp)
	call	sqrtf
.LVL352:
	.loc 7 62 18 discriminator 3 view .LVU1503
	movl	248(%rsp), %edx
	movaps	%xmm0, %xmm1
	jmp	.L236
.LBE1380:
.LBE1382:
.LBE1386:
.LBE1406:
	.cfi_endproc
.LFE116:
	.seh_endproc
	.p2align 4
	.globl	GameWorld_Init
	.def	GameWorld_Init;	.scl	2;	.type	32;	.endef
	.seh_proc	GameWorld_Init
GameWorld_Init:
.LFB117:
	.file 8 "GameWorldTest/../GameWorld/GameWorld.h"
	.loc 8 15 1 is_stmt 1 view -0
	.cfi_startproc
	pushq	%r15
	.seh_pushreg	%r15
	.cfi_def_cfa_offset 16
	.cfi_offset 15, -16
	pushq	%r14
	.seh_pushreg	%r14
	.cfi_def_cfa_offset 24
	.cfi_offset 14, -24
	pushq	%r13
	.seh_pushreg	%r13
	.cfi_def_cfa_offset 32
	.cfi_offset 13, -32
	pushq	%r12
	.seh_pushreg	%r12
	.cfi_def_cfa_offset 40
	.cfi_offset 12, -40
	pushq	%rbp
	.seh_pushreg	%rbp
	.cfi_def_cfa_offset 48
	.cfi_offset 6, -48
	pushq	%rdi
	.seh_pushreg	%rdi
	.cfi_def_cfa_offset 56
	.cfi_offset 5, -56
	pushq	%rsi
	.seh_pushreg	%rsi
	.cfi_def_cfa_offset 64
	.cfi_offset 4, -64
	pushq	%rbx
	.seh_pushreg	%rbx
	.cfi_def_cfa_offset 72
	.cfi_offset 3, -72
	subq	$424, %rsp
	.seh_stackalloc	424
	.cfi_def_cfa_offset 496
	movaps	%xmm6, 272(%rsp)
	.seh_savexmm	%xmm6, 272
	movaps	%xmm7, 288(%rsp)
	.seh_savexmm	%xmm7, 288
	movaps	%xmm8, 304(%rsp)
	.seh_savexmm	%xmm8, 304
	movaps	%xmm9, 320(%rsp)
	.seh_savexmm	%xmm9, 320
	movaps	%xmm10, 336(%rsp)
	.seh_savexmm	%xmm10, 336
	movaps	%xmm11, 352(%rsp)
	.seh_savexmm	%xmm11, 352
	movaps	%xmm12, 368(%rsp)
	.seh_savexmm	%xmm12, 368
	movaps	%xmm13, 384(%rsp)
	.seh_savexmm	%xmm13, 384
	movaps	%xmm14, 400(%rsp)
	.seh_savexmm	%xmm14, 400
	.cfi_offset 23, -224
	.cfi_offset 24, -208
	.cfi_offset 25, -192
	.cfi_offset 26, -176
	.cfi_offset 27, -160
	.cfi_offset 28, -144
	.cfi_offset 29, -128
	.cfi_offset 30, -112
	.cfi_offset 31, -96
	.seh_endprologue
	.loc 8 16 5 view .LVU1505
	.loc 8 16 40 is_stmt 0 view .LVU1506
	movl	$14416, %ecx
.LBB1463:
.LBB1464:
.LBB1465:
.LBB1466:
.LBB1467:
.LBB1468:
.LBB1469:
.LBB1470:
.LBB1471:
	.loc 3 16 32 view .LVU1507
	movl	$54, %edi
	pxor	%xmm10, %xmm10
.LBE1471:
.LBE1470:
.LBE1469:
.LBE1468:
.LBE1467:
.LBE1466:
.LBE1465:
.LBE1464:
.LBE1463:
	.loc 8 16 40 view .LVU1508
	call	malloc
.LVL353:
	.loc 8 18 21 view .LVU1509
	leaq	32(%rsp), %rcx
	xorl	%edx, %edx
	.loc 8 16 40 view .LVU1510
	movq	%rax, %rsi
.LVL354:
	.loc 8 18 5 is_stmt 1 view .LVU1511
	.loc 8 18 21 is_stmt 0 view .LVU1512
	call	Subgen_Init
.LVL355:
	.loc 8 19 24 view .LVU1513
	movaps	.LC17(%rip), %xmm0
	movq	$0, (%rsi)
	leaq	16(%rsi), %rbx
	.loc 8 18 21 view .LVU1514
	movl	252(%rsp), %edx
	leaq	14416(%rsi), %rbp
	movl	256(%rsp), %eax
	.loc 8 19 5 is_stmt 1 view .LVU1515
	.loc 8 20 5 view .LVU1516
	.loc 8 19 24 is_stmt 0 view .LVU1517
	movhps	%xmm0, 8(%rsi)
	.loc 8 21 2 is_stmt 1 view .LVU1518
.LBB1789:
	.loc 8 21 7 view .LVU1519
.LVL356:
	.loc 8 21 20 view .LVU1520
	movss	.LC0(%rip), %xmm9
	movss	.LC9(%rip), %xmm14
	movss	.LC10(%rip), %xmm13
	movss	.LC1(%rip), %xmm11
	movss	.LC18(%rip), %xmm12
	jmp	.L274
.LVL357:
	.p2align 4,,10
	.p2align 3
.L287:
.LBB1782:
.LBB1775:
.LBB1502:
.LBB1496:
.LBB1490:
.LBB1484:
.LBB1478:
.LBB1472:
	.loc 3 16 17 is_stmt 0 view .LVU1521
	leal	-1(%rdx), %r9d
.LBE1472:
.LBE1478:
.LBE1484:
.LBE1490:
.LBE1496:
.LBE1502:
.LBB1503:
.LBB1504:
.LBB1505:
.LBB1506:
.LBB1507:
.LBB1508:
.LBB1509:
.LBB1510:
	subl	$2, %edx
.LBE1510:
.LBE1509:
.LBE1508:
.LBE1507:
.LBE1506:
.LBE1505:
.LBE1504:
.LBE1503:
.LBB1620:
.LBB1497:
.LBB1491:
.LBB1485:
.LBB1479:
.LBB1473:
	.loc 3 17 2 is_stmt 1 view .LVU1522
	.loc 3 17 5 is_stmt 0 view .LVU1523
	testl	%eax, %eax
	je	.L276
.L288:
	.loc 3 17 17 view .LVU1524
	leal	-1(%rax), %r8d
.LBE1473:
.LBE1479:
.LBE1485:
.LBE1491:
.LBE1497:
.LBE1620:
.LBB1621:
.LBB1611:
.LBB1541:
.LBB1535:
.LBB1529:
.LBB1523:
.LBB1517:
.LBB1511:
	subl	$2, %eax
.L257:
.LBE1511:
.LBE1517:
.LBE1523:
.LBE1529:
.LBE1535:
.LBE1541:
.LBE1611:
.LBE1621:
.LBB1622:
.LBB1498:
.LBB1492:
.LBB1486:
.LBB1480:
.LBB1474:
	.loc 3 18 5 is_stmt 1 view .LVU1525
.LBE1474:
.LBE1480:
	.loc 3 46 32 is_stmt 0 view .LVU1526
	pxor	%xmm8, %xmm8
.LBE1486:
.LBE1492:
.LBE1498:
.LBE1622:
.LBB1623:
.LBB1612:
.LBB1542:
.LBB1543:
.LBB1544:
.LBB1545:
.LBB1546:
.LBB1547:
	.loc 3 16 17 view .LVU1527
	leal	-1(%rdx), %r15d
.LBE1547:
.LBE1546:
.LBE1545:
.LBE1544:
.LBE1543:
.LBE1542:
.LBE1612:
.LBE1623:
.LBB1624:
.LBB1499:
.LBB1493:
.LBB1487:
.LBB1481:
.LBB1475:
	.loc 3 18 26 view .LVU1528
	movslq	%r9d, %r11
	.loc 3 18 54 view .LVU1529
	movslq	%r8d, %r10
	.loc 3 18 9 view .LVU1530
	movl	32(%rsp,%r11,4), %ecx
	subl	32(%rsp,%r10,4), %ecx
.LVL358:
	.loc 3 19 2 is_stmt 1 view .LVU1531
	.loc 3 19 15 is_stmt 0 view .LVU1532
	leal	1000000000(%rcx), %r10d
	cmovs	%r10d, %ecx
.LVL359:
	.loc 3 20 2 is_stmt 1 view .LVU1533
.LBE1475:
.LBE1481:
.LBE1487:
.LBE1493:
.LBE1499:
.LBE1624:
.LBB1625:
.LBB1613:
.LBB1580:
.LBB1536:
.LBB1530:
.LBB1524:
.LBB1518:
.LBB1512:
	.loc 3 16 5 is_stmt 0 view .LVU1534
	testl	%r9d, %r9d
.LBE1512:
.LBE1518:
.LBE1524:
.LBE1530:
.LBE1536:
.LBE1580:
.LBE1613:
.LBE1625:
.LBB1626:
.LBB1500:
.LBB1494:
.LBB1488:
	.loc 3 46 32 view .LVU1535
	cvtsi2ssl	%ecx, %xmm8
.LBB1482:
.LBB1476:
	.loc 3 20 35 view .LVU1536
	movl	%ecx, 32(%rsp,%r11,4)
.LVL360:
	.loc 3 20 35 view .LVU1537
.LBE1476:
.LBE1482:
	.loc 3 46 32 view .LVU1538
	divss	%xmm9, %xmm8
.LBE1488:
.LBE1494:
	.loc 3 54 31 view .LVU1539
	mulss	%xmm14, %xmm8
	.loc 3 54 16 view .LVU1540
	addss	%xmm13, %xmm8
	movsldup	%xmm8, %xmm8
.LVL361:
	.loc 3 54 16 view .LVU1541
.LBE1500:
.LBE1626:
	.loc 7 45 5 is_stmt 1 view .LVU1542
.LBB1627:
.LBI1503:
	.loc 5 59 11 view .LVU1543
.LBB1614:
	.loc 5 61 5 view .LVU1544
.LBB1581:
.LBI1505:
	.loc 3 48 7 view .LVU1545
.LBB1537:
	.loc 3 50 5 view .LVU1546
.LBB1531:
.LBI1507:
	.loc 3 44 7 view .LVU1547
.LBB1525:
	.loc 3 46 5 view .LVU1548
.LBB1519:
.LBI1509:
	.loc 3 14 5 view .LVU1549
.LBB1513:
	.loc 3 16 2 view .LVU1550
	.loc 3 16 5 is_stmt 0 view .LVU1551
	jne	.L259
	movl	$53, %r15d
	.loc 3 16 32 view .LVU1552
	movl	$54, %edx
.L259:
	.loc 3 17 2 is_stmt 1 view .LVU1553
.LBE1513:
.LBE1519:
.LBE1525:
.LBE1531:
.LBE1537:
.LBE1581:
.LBB1582:
.LBB1574:
.LBB1568:
.LBB1562:
.LBB1555:
.LBB1548:
	.loc 3 17 17 is_stmt 0 view .LVU1554
	leal	-1(%rax), %r14d
.LBE1548:
.LBE1555:
.LBE1562:
.LBE1568:
.LBE1574:
.LBE1582:
.LBB1583:
.LBB1538:
.LBB1532:
.LBB1526:
.LBB1520:
.LBB1514:
	.loc 3 17 5 view .LVU1555
	testl	%r8d, %r8d
	jne	.L260
	movl	$53, %r14d
	.loc 3 17 32 view .LVU1556
	movl	$54, %eax
.L260:
	.loc 3 18 5 is_stmt 1 view .LVU1557
.LBE1514:
.LBE1520:
	.loc 3 46 32 is_stmt 0 view .LVU1558
	pxor	%xmm6, %xmm6
.LBE1526:
.LBE1532:
.LBE1538:
.LBE1583:
.LBE1614:
.LBE1627:
.LBB1628:
.LBB1629:
.LBB1630:
.LBB1631:
.LBB1632:
.LBB1633:
.LBB1634:
.LBB1635:
	.loc 3 16 17 view .LVU1559
	leal	-1(%r15), %r13d
.LBE1635:
.LBE1634:
.LBE1633:
.LBE1632:
.LBE1631:
.LBE1630:
.LBE1629:
.LBE1628:
.LBB1757:
.LBB1615:
.LBB1584:
.LBB1539:
.LBB1533:
.LBB1527:
.LBB1521:
.LBB1515:
	.loc 3 18 26 view .LVU1560
	movslq	%edx, %r9
	.loc 3 18 54 view .LVU1561
	movslq	%eax, %r8
	.loc 3 18 9 view .LVU1562
	movl	32(%rsp,%r9,4), %ecx
	subl	32(%rsp,%r8,4), %ecx
.LVL362:
	.loc 3 19 2 is_stmt 1 view .LVU1563
	.loc 3 19 15 is_stmt 0 view .LVU1564
	leal	1000000000(%rcx), %r8d
	cmovs	%r8d, %ecx
.LVL363:
	.loc 3 20 2 is_stmt 1 view .LVU1565
.LBE1515:
.LBE1521:
.LBE1527:
.LBE1533:
.LBE1539:
.LBE1584:
.LBB1585:
.LBB1575:
.LBB1569:
.LBB1563:
.LBB1556:
.LBB1549:
	.loc 3 16 5 is_stmt 0 view .LVU1566
	testl	%edx, %edx
.LBE1549:
.LBE1556:
.LBE1563:
.LBE1569:
.LBE1575:
.LBE1585:
.LBB1586:
.LBB1540:
.LBB1534:
.LBB1528:
	.loc 3 46 32 view .LVU1567
	cvtsi2ssl	%ecx, %xmm6
.LBB1522:
.LBB1516:
	.loc 3 20 35 view .LVU1568
	movl	%ecx, 32(%rsp,%r9,4)
.LVL364:
	.loc 3 20 35 view .LVU1569
.LBE1516:
.LBE1522:
	.loc 3 46 32 view .LVU1570
	divss	%xmm9, %xmm6
.LBE1528:
.LBE1534:
	.loc 3 50 44 view .LVU1571
	addss	%xmm6, %xmm6
	.loc 3 50 48 view .LVU1572
	subss	%xmm11, %xmm6
.LVL365:
	.loc 3 50 48 view .LVU1573
.LBE1540:
.LBE1586:
	.loc 5 62 5 is_stmt 1 view .LVU1574
.LBB1587:
.LBI1542:
	.loc 3 48 7 view .LVU1575
.LBB1576:
	.loc 3 50 5 view .LVU1576
.LBB1570:
.LBI1544:
	.loc 3 44 7 view .LVU1577
.LBB1564:
	.loc 3 46 5 view .LVU1578
.LBB1557:
.LBI1546:
	.loc 3 14 5 view .LVU1579
.LBB1550:
	.loc 3 16 2 view .LVU1580
	.loc 3 16 5 is_stmt 0 view .LVU1581
	jne	.L262
	movl	$53, %r13d
	.loc 3 16 32 view .LVU1582
	movl	$54, %r15d
.L262:
	.loc 3 17 2 is_stmt 1 view .LVU1583
.LBE1550:
.LBE1557:
.LBE1564:
.LBE1570:
.LBE1576:
.LBE1587:
.LBE1615:
.LBE1757:
.LBB1758:
.LBB1690:
.LBB1680:
.LBB1670:
.LBB1661:
.LBB1652:
.LBB1644:
.LBB1636:
	.loc 3 17 17 is_stmt 0 view .LVU1584
	leal	-1(%r14), %r12d
.LBE1636:
.LBE1644:
.LBE1652:
.LBE1661:
.LBE1670:
.LBE1680:
.LBE1690:
.LBE1758:
.LBB1759:
.LBB1616:
.LBB1588:
.LBB1577:
.LBB1571:
.LBB1565:
.LBB1558:
.LBB1551:
	.loc 3 17 5 view .LVU1585
	testl	%eax, %eax
	jne	.L263
	movl	$53, %r12d
	.loc 3 17 32 view .LVU1586
	movl	$54, %r14d
.L263:
	.loc 3 18 5 is_stmt 1 view .LVU1587
	.loc 3 18 26 is_stmt 0 view .LVU1588
	movslq	%r15d, %rcx
	.loc 3 18 54 view .LVU1589
	movslq	%r14d, %rdx
.LBE1551:
.LBE1558:
	.loc 3 46 32 view .LVU1590
	pxor	%xmm7, %xmm7
.LBE1565:
.LBE1571:
.LBE1577:
.LBE1588:
.LBB1589:
.LBB1590:
.LBB1591:
.LBB1592:
	.loc 5 29 11 view .LVU1591
	movaps	%xmm6, %xmm0
.LBE1592:
.LBE1591:
.LBE1590:
.LBE1589:
.LBB1604:
.LBB1578:
.LBB1572:
.LBB1566:
.LBB1559:
.LBB1552:
	.loc 3 18 9 view .LVU1592
	movl	32(%rsp,%rcx,4), %eax
.LBE1552:
.LBE1559:
.LBE1566:
.LBE1572:
.LBE1578:
.LBE1604:
.LBB1605:
.LBB1599:
.LBB1596:
.LBB1593:
	.loc 5 29 11 view .LVU1593
	mulss	%xmm6, %xmm0
.LBE1593:
.LBE1596:
.LBE1599:
.LBE1605:
.LBB1606:
.LBB1579:
.LBB1573:
.LBB1567:
.LBB1560:
.LBB1553:
	.loc 3 18 9 view .LVU1594
	subl	32(%rsp,%rdx,4), %eax
.LVL366:
	.loc 3 19 2 is_stmt 1 view .LVU1595
	.loc 3 19 15 is_stmt 0 view .LVU1596
	leal	1000000000(%rax), %edx
	cmovs	%edx, %eax
.LVL367:
	.loc 3 20 2 is_stmt 1 view .LVU1597
.LBE1553:
.LBE1560:
	.loc 3 46 32 is_stmt 0 view .LVU1598
	cvtsi2ssl	%eax, %xmm7
.LBB1561:
.LBB1554:
	.loc 3 20 35 view .LVU1599
	movl	%eax, 32(%rsp,%rcx,4)
.LVL368:
	.loc 3 20 35 view .LVU1600
.LBE1554:
.LBE1561:
	.loc 3 46 32 view .LVU1601
	divss	%xmm9, %xmm7
.LBE1567:
.LBE1573:
	.loc 3 50 44 view .LVU1602
	addss	%xmm7, %xmm7
	.loc 3 50 48 view .LVU1603
	subss	%xmm11, %xmm7
.LVL369:
	.loc 3 50 48 view .LVU1604
.LBE1579:
.LBE1606:
	.loc 5 63 5 is_stmt 1 view .LVU1605
	.loc 5 64 5 view .LVU1606
.LBB1607:
.LBI1589:
	.loc 5 53 11 view .LVU1607
.LBB1600:
	.loc 5 55 5 view .LVU1608
.LBB1597:
.LBI1591:
	.loc 5 27 7 view .LVU1609
.LBB1594:
	.loc 5 29 5 view .LVU1610
	.loc 5 29 38 is_stmt 0 view .LVU1611
	movaps	%xmm7, %xmm1
	mulss	%xmm7, %xmm1
	.loc 5 29 11 view .LVU1612
	addss	%xmm1, %xmm0
.LVL370:
	.loc 5 30 5 is_stmt 1 view .LVU1613
	ucomiss	%xmm0, %xmm10
	ja	.L285
	.loc 5 30 18 is_stmt 0 view .LVU1614
	sqrtss	%xmm0, %xmm0
.LVL371:
.L267:
	.loc 5 31 5 is_stmt 1 view .LVU1615
	.loc 5 31 5 is_stmt 0 view .LVU1616
.LBE1594:
.LBE1597:
	.loc 5 56 5 is_stmt 1 view .LVU1617
.LBE1600:
.LBE1607:
.LBE1616:
.LBE1759:
.LBB1760:
.LBB1691:
.LBB1692:
.LBB1693:
.LBB1694:
.LBB1695:
.LBB1696:
.LBB1697:
	.loc 3 16 17 is_stmt 0 view .LVU1618
	leal	-1(%r13), %edx
.LBE1697:
.LBE1696:
.LBE1695:
.LBE1694:
.LBE1693:
.LBE1692:
.LBE1691:
.LBE1760:
.LBB1761:
.LBB1617:
.LBB1608:
.LBB1601:
	.loc 5 56 11 view .LVU1619
	movaps	%xmm11, %xmm1
.LBE1601:
.LBE1608:
.LBE1617:
.LBE1761:
.LBB1762:
.LBB1740:
.LBB1681:
.LBB1671:
.LBB1662:
.LBB1653:
.LBB1645:
.LBB1637:
	.loc 3 16 5 view .LVU1620
	testl	%r15d, %r15d
.LBE1637:
.LBE1645:
.LBE1653:
.LBE1662:
.LBE1671:
.LBE1681:
.LBE1740:
.LBE1762:
.LBB1763:
.LBB1618:
.LBB1609:
.LBB1602:
	.loc 5 56 11 view .LVU1621
	divss	%xmm0, %xmm1
.LVL372:
	.loc 5 57 5 is_stmt 1 view .LVU1622
	.loc 5 57 29 is_stmt 0 view .LVU1623
	mulss	%xmm1, %xmm6
.LVL373:
	.loc 5 57 37 view .LVU1624
	mulss	%xmm1, %xmm7
.LVL374:
	.loc 5 57 37 view .LVU1625
	unpcklps	%xmm7, %xmm6
.LVL375:
	.loc 5 57 37 view .LVU1626
.LBE1602:
.LBE1609:
.LBE1618:
.LBE1763:
	.loc 7 47 5 is_stmt 1 view .LVU1627
.LBB1764:
.LBI1628:
	.loc 6 19 11 view .LVU1628
	.loc 6 19 62 view .LVU1629
.LBB1741:
.LBI1629:
	.loc 6 17 7 view .LVU1630
	.loc 6 17 60 view .LVU1631
.LBB1682:
.LBI1630:
	.loc 3 52 7 view .LVU1632
.LBB1672:
	.loc 3 54 5 view .LVU1633
.LBB1663:
.LBI1632:
	.loc 3 44 7 view .LVU1634
.LBB1654:
	.loc 3 46 5 view .LVU1635
.LBB1646:
.LBI1634:
	.loc 3 14 5 view .LVU1636
.LBB1638:
	.loc 3 16 2 view .LVU1637
	.loc 3 16 5 is_stmt 0 view .LVU1638
	jne	.L268
	movl	$53, %edx
	.loc 3 16 32 view .LVU1639
	movl	$54, %r13d
.L268:
	.loc 3 17 2 is_stmt 1 view .LVU1640
.LBE1638:
.LBE1646:
.LBE1654:
.LBE1663:
.LBE1672:
.LBE1682:
.LBE1741:
.LBB1742:
.LBB1732:
.LBB1724:
.LBB1717:
.LBB1710:
.LBB1704:
.LBB1698:
	.loc 3 17 17 is_stmt 0 view .LVU1641
	leal	-1(%r12), %eax
.LBE1698:
.LBE1704:
.LBE1710:
.LBE1717:
.LBE1724:
.LBE1732:
.LBE1742:
.LBB1743:
.LBB1683:
.LBB1673:
.LBB1664:
.LBB1655:
.LBB1647:
.LBB1639:
	.loc 3 17 5 view .LVU1642
	testl	%r14d, %r14d
	jne	.L269
	movl	$53, %eax
	.loc 3 17 32 view .LVU1643
	movl	$54, %r12d
.L269:
	.loc 3 18 5 is_stmt 1 view .LVU1644
	.loc 3 18 26 is_stmt 0 view .LVU1645
	movslq	%r13d, %r8
	.loc 3 18 54 view .LVU1646
	movslq	%r12d, %r9
.LBE1639:
.LBE1647:
	.loc 3 46 32 view .LVU1647
	pxor	%xmm0, %xmm0
.LBE1655:
.LBE1664:
.LBE1673:
.LBE1683:
.LBE1743:
.LBB1744:
.LBB1733:
.LBB1725:
.LBB1718:
.LBB1711:
	pxor	%xmm1, %xmm1
.LBE1711:
.LBE1718:
.LBE1725:
.LBE1733:
.LBE1744:
.LBB1745:
.LBB1684:
.LBB1674:
.LBB1665:
.LBB1656:
.LBB1648:
.LBB1640:
	.loc 3 18 9 view .LVU1648
	movl	32(%rsp,%r8,4), %ecx
.LBE1640:
.LBE1648:
.LBE1656:
.LBE1665:
.LBE1674:
.LBE1684:
.LBE1745:
.LBE1764:
.LBB1765:
.LBB1766:
	.loc 5 49 82 view .LVU1649
	mulps	%xmm8, %xmm6
.LBE1766:
.LBE1765:
.LBE1775:
.LBE1782:
	.loc 8 22 25 view .LVU1650
	movq	$0, 16(%rbx)
.LBB1783:
.LBB1776:
.LBB1768:
.LBB1746:
.LBB1685:
.LBB1675:
.LBB1666:
.LBB1657:
.LBB1649:
.LBB1641:
	.loc 3 18 9 view .LVU1651
	subl	32(%rsp,%r9,4), %ecx
.LVL376:
	.loc 3 19 2 is_stmt 1 view .LVU1652
.LBE1641:
.LBE1649:
.LBE1657:
.LBE1666:
.LBE1675:
.LBE1685:
.LBE1746:
.LBE1768:
.LBE1776:
.LBE1783:
	.loc 8 22 25 is_stmt 0 view .LVU1653
	movq	$0, 24(%rbx)
	movq	$0, 32(%rbx)
	movq	$0, 40(%rbx)
	movlps	%xmm6, 8(%rbx)
.LBB1784:
.LBB1777:
.LBB1769:
.LBB1747:
.LBB1686:
.LBB1676:
.LBB1667:
.LBB1658:
.LBB1650:
.LBB1642:
	.loc 3 19 15 view .LVU1654
	leal	1000000000(%rcx), %r9d
	cmovs	%r9d, %ecx
.LVL377:
	.loc 3 20 2 is_stmt 1 view .LVU1655
.LBE1642:
.LBE1650:
.LBE1658:
.LBE1667:
.LBE1676:
.LBE1686:
.LBE1747:
.LBB1748:
.LBB1734:
.LBB1726:
.LBB1719:
.LBB1712:
.LBB1705:
.LBB1699:
	.loc 3 16 32 is_stmt 0 view .LVU1656
	testl	%r13d, %r13d
	cmove	%edi, %edx
	.loc 3 17 32 view .LVU1657
	testl	%r12d, %r12d
	cmove	%edi, %eax
.LBE1699:
.LBE1705:
.LBE1712:
.LBE1719:
.LBE1726:
.LBE1734:
.LBE1748:
.LBB1749:
.LBB1687:
.LBB1677:
.LBB1668:
.LBB1659:
.LBB1651:
.LBB1643:
	.loc 3 20 35 view .LVU1658
	movl	%ecx, 32(%rsp,%r8,4)
.LVL378:
	.loc 3 20 35 view .LVU1659
.LBE1643:
.LBE1651:
	.loc 3 46 32 view .LVU1660
	cvtsi2ssl	%ecx, %xmm0
.LBE1659:
.LBE1668:
.LBE1677:
.LBE1687:
.LBE1749:
.LBB1750:
.LBB1735:
.LBB1727:
.LBB1720:
.LBB1713:
.LBB1706:
.LBB1700:
	.loc 3 18 26 view .LVU1661
	movslq	%edx, %r8
	.loc 3 18 54 view .LVU1662
	movslq	%eax, %r9
	.loc 3 18 9 view .LVU1663
	movl	32(%rsp,%r8,4), %ecx
	subl	32(%rsp,%r9,4), %ecx
.LBE1700:
.LBE1706:
.LBE1713:
.LBE1720:
.LBE1727:
.LBE1735:
.LBE1750:
.LBB1751:
.LBB1688:
.LBB1678:
.LBB1669:
.LBB1660:
	.loc 3 46 32 view .LVU1664
	divss	%xmm9, %xmm0
.LBE1660:
.LBE1669:
.LBE1678:
.LBE1688:
.LBE1751:
.LBB1752:
.LBB1736:
.LBB1728:
.LBB1721:
.LBB1714:
.LBB1707:
.LBB1701:
	.loc 3 19 15 view .LVU1665
	leal	1000000000(%rcx), %r9d
	cmovs	%r9d, %ecx
.LBE1701:
.LBE1707:
.LBE1714:
.LBE1721:
.LBE1728:
.LBE1736:
.LBE1752:
.LBE1769:
.LBE1777:
.LBE1784:
	.loc 8 21 20 view .LVU1666
	addq	$48, %rbx
.LVL379:
.LBB1785:
.LBB1778:
.LBB1770:
.LBB1753:
.LBB1737:
.LBB1729:
.LBB1722:
.LBB1715:
	.loc 3 46 32 view .LVU1667
	cvtsi2ssl	%ecx, %xmm1
.LBB1708:
.LBB1702:
	.loc 3 20 35 view .LVU1668
	movl	%ecx, 32(%rsp,%r8,4)
.LBE1702:
.LBE1708:
	.loc 3 46 32 view .LVU1669
	divss	%xmm9, %xmm1
.LBE1715:
.LBE1722:
.LBE1729:
.LBE1737:
.LBE1753:
.LBB1754:
.LBB1689:
.LBB1679:
	.loc 3 54 31 view .LVU1670
	mulss	%xmm12, %xmm0
	.loc 3 54 16 view .LVU1671
	addss	%xmm10, %xmm0
.LVL380:
	.loc 3 54 16 view .LVU1672
.LBE1679:
.LBE1689:
.LBE1754:
.LBB1755:
.LBI1691:
	.loc 6 18 7 is_stmt 1 view .LVU1673
	.loc 6 18 60 view .LVU1674
.LBB1738:
.LBI1692:
	.loc 3 52 7 view .LVU1675
.LBB1730:
	.loc 3 54 5 view .LVU1676
.LBB1723:
.LBI1694:
	.loc 3 44 7 view .LVU1677
.LBB1716:
	.loc 3 46 5 view .LVU1678
.LBB1709:
.LBI1696:
	.loc 3 14 5 view .LVU1679
.LBB1703:
	.loc 3 16 2 view .LVU1680
	.loc 3 17 2 view .LVU1681
	.loc 3 18 5 view .LVU1682
	.loc 3 19 2 view .LVU1683
	.loc 3 20 2 view .LVU1684
	.loc 3 20 2 is_stmt 0 view .LVU1685
.LBE1703:
.LBE1709:
.LBE1716:
.LBE1723:
.LBE1730:
.LBE1738:
.LBE1755:
.LBE1770:
	.loc 7 48 5 is_stmt 1 view .LVU1686
.LBB1771:
.LBI1765:
	.loc 5 49 11 view .LVU1687
.LBB1767:
	.loc 5 49 56 view .LVU1688
	.loc 5 49 56 is_stmt 0 view .LVU1689
.LBE1767:
.LBE1771:
	.loc 7 50 5 is_stmt 1 view .LVU1690
	.loc 7 51 5 view .LVU1691
	.loc 7 52 5 view .LVU1692
	.loc 7 54 5 view .LVU1693
	.loc 7 56 5 view .LVU1694
	.loc 7 56 5 is_stmt 0 view .LVU1695
.LBE1778:
.LBE1785:
	.loc 8 21 45 is_stmt 1 view .LVU1696
	.loc 8 21 20 view .LVU1697
.LBB1786:
.LBB1779:
.LBB1772:
.LBB1756:
.LBB1739:
.LBB1731:
	.loc 3 54 31 is_stmt 0 view .LVU1698
	mulss	%xmm12, %xmm1
	.loc 3 54 16 view .LVU1699
	addss	%xmm10, %xmm1
.LBE1731:
.LBE1739:
.LBE1756:
.LBE1772:
.LBE1779:
.LBE1786:
	.loc 8 22 25 view .LVU1700
	unpcklps	%xmm1, %xmm0
	movlps	%xmm0, -48(%rbx)
	.loc 8 21 20 view .LVU1701
	cmpq	%rbx, %rbp
	je	.L286
.LVL381:
.L274:
	.loc 8 22 3 is_stmt 1 discriminator 3 view .LVU1702
.LBB1787:
.LBI1464:
	.loc 7 42 6 discriminator 3 view .LVU1703
.LBB1780:
	.loc 7 44 5 discriminator 3 view .LVU1704
.LBB1773:
.LBI1466:
	.loc 3 52 7 discriminator 3 view .LVU1705
.LBB1501:
	.loc 3 54 5 discriminator 3 view .LVU1706
.LBB1495:
.LBI1468:
	.loc 3 44 7 discriminator 3 view .LVU1707
.LBB1489:
	.loc 3 46 5 discriminator 3 view .LVU1708
.LBB1483:
.LBI1470:
	.loc 3 14 5 discriminator 3 view .LVU1709
.LBB1477:
	.loc 3 16 2 discriminator 3 view .LVU1710
	.loc 3 16 5 is_stmt 0 discriminator 3 view .LVU1711
	testl	%edx, %edx
	jne	.L287
	.loc 3 17 5 view .LVU1712
	testl	%eax, %eax
	movl	$53, %edx
	.loc 3 16 32 view .LVU1713
	movl	$54, %r9d
	.loc 3 17 2 is_stmt 1 view .LVU1714
	.loc 3 17 5 is_stmt 0 view .LVU1715
	jne	.L288
.L276:
	.loc 3 17 5 view .LVU1716
	movl	$53, %eax
	.loc 3 17 32 view .LVU1717
	movl	$54, %r8d
	jmp	.L257
.LVL382:
.L286:
	.loc 3 17 32 view .LVU1718
.LBE1477:
.LBE1483:
.LBE1489:
.LBE1495:
.LBE1501:
.LBE1773:
.LBE1780:
.LBE1787:
.LBE1789:
	.loc 8 24 5 is_stmt 1 view .LVU1719
	.loc 8 25 1 is_stmt 0 view .LVU1720
	movaps	272(%rsp), %xmm6
	movq	%rsi, %rax
	movaps	288(%rsp), %xmm7
	movaps	304(%rsp), %xmm8
	movaps	320(%rsp), %xmm9
	movaps	336(%rsp), %xmm10
	movaps	352(%rsp), %xmm11
	movaps	368(%rsp), %xmm12
	movaps	384(%rsp), %xmm13
	movaps	400(%rsp), %xmm14
	addq	$424, %rsp
	.cfi_remember_state
	.cfi_restore 31
	.cfi_restore 30
	.cfi_restore 29
	.cfi_restore 28
	.cfi_restore 27
	.cfi_restore 26
	.cfi_restore 25
	.cfi_restore 24
	.cfi_restore 23
	.cfi_def_cfa_offset 72
	popq	%rbx
	.cfi_restore 3
	.cfi_def_cfa_offset 64
	popq	%rsi
	.cfi_restore 4
	.cfi_def_cfa_offset 56
.LVL383:
	.loc 8 25 1 view .LVU1721
	popq	%rdi
	.cfi_restore 5
	.cfi_def_cfa_offset 48
	popq	%rbp
	.cfi_restore 6
	.cfi_def_cfa_offset 40
	popq	%r12
	.cfi_restore 12
	.cfi_def_cfa_offset 32
	popq	%r13
	.cfi_restore 13
	.cfi_def_cfa_offset 24
	popq	%r14
	.cfi_restore 14
	.cfi_def_cfa_offset 16
	popq	%r15
	.cfi_restore 15
	.cfi_def_cfa_offset 8
	ret
.LVL384:
.L285:
	.cfi_restore_state
.LBB1790:
.LBB1788:
.LBB1781:
.LBB1774:
.LBB1619:
.LBB1610:
.LBB1603:
.LBB1598:
.LBB1595:
	.loc 5 30 18 view .LVU1722
	call	sqrtf
.LVL385:
	.loc 5 30 18 view .LVU1723
	jmp	.L267
.LBE1595:
.LBE1598:
.LBE1603:
.LBE1610:
.LBE1619:
.LBE1774:
.LBE1781:
.LBE1788:
.LBE1790:
	.cfi_endproc
.LFE117:
	.seh_endproc
	.p2align 4
	.globl	GameWorld_End
	.def	GameWorld_End;	.scl	2;	.type	32;	.endef
	.seh_proc	GameWorld_End
GameWorld_End:
.LVL386:
.LFB118:
	.loc 8 27 1 is_stmt 1 view -0
	.cfi_startproc
	.loc 8 27 1 is_stmt 0 view .LVU1725
	.seh_endprologue
	.loc 8 28 1 is_stmt 1 view .LVU1726
	ret
	.cfi_endproc
.LFE118:
	.seh_endproc
	.p2align 4
	.globl	GameWorld_Update
	.def	GameWorld_Update;	.scl	2;	.type	32;	.endef
	.seh_proc	GameWorld_Update
GameWorld_Update:
.LVL387:
.LFB119:
	.loc 8 30 1 view -0
	.cfi_startproc
	.loc 8 30 1 is_stmt 0 view .LVU1728
	pushq	%r12
	.seh_pushreg	%r12
	.cfi_def_cfa_offset 16
	.cfi_offset 12, -16
	pushq	%rbp
	.seh_pushreg	%rbp
	.cfi_def_cfa_offset 24
	.cfi_offset 6, -24
	pushq	%rdi
	.seh_pushreg	%rdi
	.cfi_def_cfa_offset 32
	.cfi_offset 5, -32
	pushq	%rsi
	.seh_pushreg	%rsi
	.cfi_def_cfa_offset 40
	.cfi_offset 4, -40
	pushq	%rbx
	.seh_pushreg	%rbx
	.cfi_def_cfa_offset 48
	.cfi_offset 3, -48
	subq	$160, %rsp
	.seh_stackalloc	160
	.cfi_def_cfa_offset 208
	movaps	%xmm6, 32(%rsp)
	.seh_savexmm	%xmm6, 32
	movaps	%xmm7, 48(%rsp)
	.seh_savexmm	%xmm7, 48
	movaps	%xmm8, 64(%rsp)
	.seh_savexmm	%xmm8, 64
	movaps	%xmm9, 80(%rsp)
	.seh_savexmm	%xmm9, 80
	movaps	%xmm10, 96(%rsp)
	.seh_savexmm	%xmm10, 96
	movaps	%xmm11, 112(%rsp)
	.seh_savexmm	%xmm11, 112
	movaps	%xmm12, 128(%rsp)
	.seh_savexmm	%xmm12, 128
	movaps	%xmm13, 144(%rsp)
	.seh_savexmm	%xmm13, 144
	.cfi_offset 23, -176
	.cfi_offset 24, -160
	.cfi_offset 25, -144
	.cfi_offset 26, -128
	.cfi_offset 27, -112
	.cfi_offset 28, -96
	.cfi_offset 29, -80
	.cfi_offset 30, -64
	.seh_endprologue
	.loc 8 31 5 is_stmt 1 view .LVU1729
	.loc 8 31 33 is_stmt 0 view .LVU1730
	pxor	%xmm11, %xmm11
	.loc 8 32 5 view .LVU1731
	movl	$1, %r12d
.LBB1821:
.LBB1822:
.LBB1823:
.LBB1824:
.LBB1825:
.LBB1826:
	.loc 7 79 11 view .LVU1732
	movss	.LC1(%rip), %xmm10
	.loc 7 81 11 view .LVU1733
	movss	.LC13(%rip), %xmm9
.LBE1826:
.LBE1825:
.LBE1824:
.LBE1823:
.LBE1822:
.LBE1821:
	.loc 8 31 33 view .LVU1734
	cvtsi2ssl	%edx, %xmm11
	leaq	64(%rcx), %rsi
	.loc 8 31 11 view .LVU1735
	divss	.LC20(%rip), %xmm11
	.loc 8 30 1 view .LVU1736
	movq	%rcx, %rdi
	movsldup	%xmm11, %xmm11
.LVL388:
	.loc 8 32 5 is_stmt 1 view .LVU1737
.LBB1888:
.LBI1821:
	.loc 7 118 6 view .LVU1738
.LBB1885:
.LBB1864:
	.loc 7 123 25 view .LVU1739
	.loc 7 124 5 view .LVU1740
.LBB1860:
	.loc 7 124 10 view .LVU1741
	.loc 7 124 25 view .LVU1742
	leaq	14416(%rcx), %rbp
.LVL389:
	.p2align 4,,10
	.p2align 3
.L291:
	.loc 7 124 25 is_stmt 0 view .LVU1743
.LBE1860:
.LBE1864:
.LBE1885:
.LBE1888:
	.loc 8 32 5 view .LVU1744
	movq	%rsi, %rbx
	pxor	%xmm13, %xmm13
.LVL390:
	.p2align 4,,10
	.p2align 3
.L300:
.LBB1889:
.LBB1886:
.LBB1865:
.LBB1861:
	.loc 7 125 9 is_stmt 1 view .LVU1745
.LBB1858:
.LBI1825:
	.loc 7 58 6 view .LVU1746
.LBB1856:
	.loc 7 60 5 view .LVU1747
	movq	-48(%rsi), %xmm7
.LVL391:
	.loc 7 60 5 is_stmt 0 view .LVU1748
	movq	(%rbx), %xmm8
.LBB1827:
.LBB1828:
	.loc 5 48 82 view .LVU1749
	movaps	%xmm7, %xmm12
	subps	%xmm8, %xmm12
	movshdup	%xmm12, %xmm0
	movaps	%xmm12, %xmm6
.LVL392:
	.loc 5 48 82 view .LVU1750
.LBE1828:
.LBI1827:
	.loc 5 48 11 is_stmt 1 view .LVU1751
.LBB1829:
	.loc 5 48 56 view .LVU1752
	.loc 5 48 56 is_stmt 0 view .LVU1753
.LBE1829:
.LBE1827:
	.loc 7 61 5 is_stmt 1 view .LVU1754
	.loc 7 61 31 is_stmt 0 view .LVU1755
	mulss	%xmm12, %xmm6
	.loc 7 61 47 view .LVU1756
	mulss	%xmm0, %xmm0
	.loc 7 61 11 view .LVU1757
	addss	%xmm0, %xmm6
.LVL393:
	.loc 7 62 5 is_stmt 1 view .LVU1758
	ucomiss	%xmm6, %xmm13
	ja	.L308
	.loc 7 62 18 is_stmt 0 view .LVU1759
	movaps	%xmm6, %xmm1
	sqrtss	%xmm1, %xmm1
.LVL394:
.L295:
	.loc 7 65 5 is_stmt 1 view .LVU1760
	.loc 7 65 8 is_stmt 0 view .LVU1761
	comiss	.LC11(%rip), %xmm6
	jnb	.L298
	.loc 7 67 5 is_stmt 1 view .LVU1762
.LVL395:
.LBB1830:
.LBI1830:
	.loc 5 47 11 view .LVU1763
.LBB1831:
	.loc 5 47 56 view .LVU1764
	.loc 5 47 96 is_stmt 0 view .LVU1765
	movshdup	%xmm8, %xmm0
.LBE1831:
.LBE1830:
	.loc 7 67 74 view .LVU1766
	addl	$1, -8(%rsi)
.LBB1833:
.LBB1832:
	.loc 5 47 96 view .LVU1767
	addss	-28(%rsi), %xmm0
.LVL396:
	.loc 5 47 82 view .LVU1768
	addss	-32(%rsi), %xmm8
.LBE1832:
.LBE1833:
	.loc 7 67 20 view .LVU1769
	movss	%xmm0, -28(%rsi)
	.loc 7 67 60 is_stmt 1 view .LVU1770
	.loc 7 68 5 view .LVU1771
.LVL397:
.LBB1834:
.LBI1834:
	.loc 5 47 11 view .LVU1772
.LBB1835:
	.loc 5 47 56 view .LVU1773
	.loc 5 47 96 is_stmt 0 view .LVU1774
	movshdup	%xmm7, %xmm0
.LBE1835:
.LBE1834:
	.loc 7 67 20 view .LVU1775
	movss	%xmm8, -32(%rsi)
.LVL398:
	.loc 7 68 74 view .LVU1776
	addl	$1, 40(%rbx)
.LBB1837:
.LBB1836:
	.loc 5 47 96 view .LVU1777
	addss	20(%rbx), %xmm0
.LVL399:
	.loc 5 47 82 view .LVU1778
	addss	16(%rbx), %xmm7
.LBE1836:
.LBE1837:
	.loc 7 68 20 view .LVU1779
	movss	%xmm0, 20(%rbx)
	.loc 7 68 60 is_stmt 1 view .LVU1780
	.loc 7 71 5 view .LVU1781
	.loc 7 73 5 view .LVU1782
.LVL400:
.LBB1838:
.LBI1838:
	.loc 5 47 11 view .LVU1783
.LBB1839:
	.loc 5 47 56 view .LVU1784
.LBE1839:
.LBE1838:
	.loc 7 68 20 is_stmt 0 view .LVU1785
	movss	%xmm7, 16(%rbx)
.LVL401:
.LBB1841:
.LBB1840:
	.loc 5 47 96 view .LVU1786
	movss	-20(%rsi), %xmm0
	.loc 5 47 82 view .LVU1787
	movss	-24(%rsi), %xmm2
	.loc 5 47 96 view .LVU1788
	addss	12(%rbx), %xmm0
.LVL402:
	.loc 5 47 82 view .LVU1789
	addss	8(%rbx), %xmm2
.LBE1840:
.LBE1841:
	.loc 7 73 74 view .LVU1790
	addl	$1, -4(%rsi)
	.loc 7 73 20 view .LVU1791
	movss	%xmm0, -20(%rsi)
	.loc 7 73 60 is_stmt 1 view .LVU1792
	.loc 7 74 5 view .LVU1793
.LVL403:
.LBB1842:
.LBI1842:
	.loc 5 47 11 view .LVU1794
.LBB1843:
	.loc 5 47 56 view .LVU1795
.LBE1843:
.LBE1842:
	.loc 7 73 20 is_stmt 0 view .LVU1796
	movss	%xmm2, -24(%rsi)
.LVL404:
.LBB1845:
.LBB1844:
	.loc 5 47 96 view .LVU1797
	movss	28(%rbx), %xmm0
	.loc 5 47 82 view .LVU1798
	movss	24(%rbx), %xmm2
	.loc 5 47 96 view .LVU1799
	addss	-36(%rsi), %xmm0
.LVL405:
	.loc 5 47 82 view .LVU1800
	addss	-40(%rsi), %xmm2
.LBE1844:
.LBE1845:
	.loc 7 74 74 view .LVU1801
	addl	$1, 44(%rbx)
	.loc 7 77 8 view .LVU1802
	comiss	.LC12(%rip), %xmm6
	.loc 7 74 20 view .LVU1803
	movss	%xmm0, 28(%rbx)
	.loc 7 74 60 is_stmt 1 view .LVU1804
	.loc 7 77 5 view .LVU1805
	.loc 7 74 20 is_stmt 0 view .LVU1806
	movss	%xmm2, 24(%rbx)
	.loc 7 77 8 view .LVU1807
	jnb	.L298
	.loc 7 79 5 is_stmt 1 view .LVU1808
	.loc 7 79 11 is_stmt 0 view .LVU1809
	movaps	%xmm10, %xmm0
	.loc 7 81 11 view .LVU1810
	movaps	%xmm9, %xmm2
	.loc 7 79 11 view .LVU1811
	divss	%xmm1, %xmm0
.LVL406:
	.loc 7 80 5 is_stmt 1 view .LVU1812
	.loc 7 81 5 view .LVU1813
	.loc 7 81 11 is_stmt 0 view .LVU1814
	subss	%xmm1, %xmm2
.LBB1846:
.LBB1847:
	.loc 5 47 82 view .LVU1815
	movq	-16(%rsi), %xmm1
.LBE1847:
.LBE1846:
.LBB1849:
.LBB1850:
	.loc 5 49 82 view .LVU1816
	movsldup	%xmm2, %xmm2
.LBE1850:
.LBE1849:
	.loc 7 80 46 view .LVU1817
	movsldup	%xmm0, %xmm0
.LVL407:
	.loc 7 80 46 view .LVU1818
	mulps	%xmm12, %xmm0
.LBB1853:
.LBB1851:
	.loc 5 49 82 view .LVU1819
	mulps	%xmm2, %xmm0
.LVL408:
	.loc 5 49 82 view .LVU1820
.LBE1851:
.LBE1853:
	.loc 7 82 5 is_stmt 1 view .LVU1821
.LBB1854:
.LBI1849:
	.loc 5 49 11 view .LVU1822
.LBB1852:
	.loc 5 49 56 view .LVU1823
	.loc 5 49 56 is_stmt 0 view .LVU1824
.LBE1852:
.LBE1854:
	.loc 7 84 5 is_stmt 1 view .LVU1825
.LBB1855:
.LBI1846:
	.loc 5 47 11 view .LVU1826
.LBB1848:
	.loc 5 47 56 view .LVU1827
	.loc 5 47 82 is_stmt 0 view .LVU1828
	addps	%xmm0, %xmm1
.LBE1848:
.LBE1855:
	.loc 7 84 20 view .LVU1829
	movlps	%xmm1, -16(%rsi)
	.loc 7 85 5 is_stmt 1 view .LVU1830
	.loc 7 85 20 is_stmt 0 view .LVU1831
	movq	32(%rbx), %xmm1
	subps	%xmm0, %xmm1
	movlps	%xmm1, 32(%rbx)
.LVL409:
.L298:
	.loc 7 85 20 view .LVU1832
.LBE1856:
.LBE1858:
	.loc 7 124 36 is_stmt 1 view .LVU1833
	.loc 7 124 25 view .LVU1834
	addq	$48, %rbx
.LVL410:
	.loc 7 124 25 is_stmt 0 view .LVU1835
	cmpq	%rbp, %rbx
	jne	.L300
.LVL411:
	.loc 7 124 25 view .LVU1836
.LBE1861:
	.loc 7 124 5 is_stmt 1 view .LVU1837
.LBB1862:
	.loc 7 124 10 view .LVU1838
	.loc 7 124 25 view .LVU1839
	addq	$1, %r12
.LVL412:
	.loc 7 124 25 is_stmt 0 view .LVU1840
	addq	$48, %rsi
	cmpq	$300, %r12
	jne	.L291
	leaq	16(%rdi), %rbx
	movq	%rbx, %rsi
.LVL413:
	.p2align 4,,10
	.p2align 3
.L302:
	.loc 7 124 25 view .LVU1841
.LBE1862:
.LBE1865:
.LBB1866:
	.loc 7 128 9 is_stmt 1 view .LVU1842
	movq	%rsi, %rcx
	.loc 7 127 23 is_stmt 0 view .LVU1843
	addq	$48, %rsi
.LVL414:
	.loc 7 128 9 view .LVU1844
	call	Boid_UpdateVelocity_2
.LVL415:
	.loc 7 127 34 is_stmt 1 view .LVU1845
	.loc 7 127 23 view .LVU1846
	cmpq	%rbp, %rsi
	jne	.L302
	.p2align 4,,10
	.p2align 3
.L303:
.LVL416:
	.loc 7 127 23 is_stmt 0 view .LVU1847
.LBE1866:
.LBB1867:
	.loc 7 131 9 is_stmt 1 view .LVU1848
.LBB1868:
.LBI1868:
	.loc 7 112 6 view .LVU1849
.LBB1869:
	.loc 7 114 5 view .LVU1850
.LBB1870:
.LBI1870:
	.loc 5 49 11 view .LVU1851
.LBB1871:
	.loc 5 49 56 view .LVU1852
	.loc 5 49 56 is_stmt 0 view .LVU1853
.LBE1871:
.LBE1870:
	.loc 7 115 5 is_stmt 1 view .LVU1854
.LBB1874:
.LBI1874:
	.loc 5 47 11 view .LVU1855
.LBB1875:
	.loc 5 47 56 view .LVU1856
	.loc 5 47 56 is_stmt 0 view .LVU1857
.LBE1875:
.LBE1874:
.LBB1878:
.LBB1872:
	.loc 5 49 82 view .LVU1858
	movq	8(%rbx), %xmm0
.LBE1872:
.LBE1878:
	.loc 7 116 17 view .LVU1859
	movq	%rdi, %rcx
.LBE1869:
.LBE1868:
	.loc 7 130 23 view .LVU1860
	addq	$48, %rbx
.LVL417:
.LBB1883:
.LBB1882:
.LBB1879:
.LBB1876:
	.loc 5 47 82 view .LVU1861
	movq	-48(%rbx), %xmm1
.LBE1876:
.LBE1879:
.LBB1880:
.LBB1873:
	.loc 5 49 82 view .LVU1862
	mulps	%xmm11, %xmm0
.LBE1873:
.LBE1880:
.LBB1881:
.LBB1877:
	.loc 5 47 82 view .LVU1863
	addps	%xmm1, %xmm0
	movq	%xmm0, %rax
.LBE1877:
.LBE1881:
	.loc 7 115 17 view .LVU1864
	movlps	%xmm0, -48(%rbx)
	.loc 7 116 5 is_stmt 1 view .LVU1865
	.loc 7 115 17 is_stmt 0 view .LVU1866
	movq	%rax, %rdx
	.loc 7 116 17 view .LVU1867
	call	AABB_WrapAround
.LVL418:
	movq	%rax, -48(%rbx)
.LVL419:
	.loc 7 116 17 view .LVU1868
.LBE1882:
.LBE1883:
	.loc 7 130 34 is_stmt 1 view .LVU1869
	.loc 7 130 23 view .LVU1870
	cmpq	%rbp, %rbx
	jne	.L303
.LBE1867:
.LBE1886:
.LBE1889:
	.loc 8 33 1 is_stmt 0 view .LVU1871
	movaps	32(%rsp), %xmm6
	movaps	48(%rsp), %xmm7
	movaps	64(%rsp), %xmm8
	movaps	80(%rsp), %xmm9
	movaps	96(%rsp), %xmm10
	movaps	112(%rsp), %xmm11
	movaps	128(%rsp), %xmm12
	movaps	144(%rsp), %xmm13
	addq	$160, %rsp
	.cfi_remember_state
	.cfi_restore 30
	.cfi_restore 29
	.cfi_restore 28
	.cfi_restore 27
	.cfi_restore 26
	.cfi_restore 25
	.cfi_restore 24
	.cfi_restore 23
	.cfi_def_cfa_offset 48
	popq	%rbx
	.cfi_restore 3
	.cfi_def_cfa_offset 40
	popq	%rsi
	.cfi_restore 4
	.cfi_def_cfa_offset 32
	popq	%rdi
	.cfi_restore 5
	.cfi_def_cfa_offset 24
.LVL420:
	.loc 8 33 1 view .LVU1872
	popq	%rbp
	.cfi_restore 6
	.cfi_def_cfa_offset 16
.LVL421:
	.loc 8 33 1 view .LVU1873
	popq	%r12
	.cfi_restore 12
	.cfi_def_cfa_offset 8
	ret
.LVL422:
.L308:
	.cfi_restore_state
.LBB1890:
.LBB1887:
.LBB1884:
.LBB1863:
.LBB1859:
.LBB1857:
	.loc 7 62 18 view .LVU1874
	movaps	%xmm6, %xmm0
	call	sqrtf
.LVL423:
	.loc 7 62 18 view .LVU1875
	movaps	%xmm0, %xmm1
	jmp	.L295
.LBE1857:
.LBE1859:
.LBE1863:
.LBE1884:
.LBE1887:
.LBE1890:
	.cfi_endproc
.LFE119:
	.seh_endproc
	.def	__main;	.scl	2;	.type	32;	.endef
	.section .rdata,"dr"
.LC21:
	.ascii "%lli\0"
	.section	.text.startup,"x"
	.p2align 4
	.globl	main
	.def	main;	.scl	2;	.type	32;	.endef
	.seh_proc	main
main:
.LFB120:
	.loc 1 12 1 is_stmt 1 view -0
	.cfi_startproc
	subq	$40, %rsp
	.seh_stackalloc	40
	.cfi_def_cfa_offset 48
	.seh_endprologue
	.loc 1 12 1 is_stmt 0 view .LVU1877
	call	__main
.LVL424:
	.loc 1 13 5 is_stmt 1 view .LVU1878
	.loc 1 15 5 view .LVU1879
	movl	$8, %edx
	leaq	.LC21(%rip), %rcx
	call	printf
.LVL425:
	.loc 1 16 5 view .LVU1880
	.loc 1 38 1 is_stmt 0 view .LVU1881
	xorl	%eax, %eax
	addq	$40, %rsp
	.cfi_def_cfa_offset 8
	ret
	.cfi_endproc
.LFE120:
	.seh_endproc
	.globl	power3
	.section .rdata,"dr"
	.align 4
power3:
	.long	1025758986
	.globl	power2
	.align 4
power2:
	.long	1008981770
	.globl	power1
	.align 4
power1:
	.long	1008981770
	.globl	rangeSquared_3
	.align 4
rangeSquared_3:
	.long	1082130432
	.globl	rangeSquared_2
	.align 4
rangeSquared_2:
	.long	1103626240
	.globl	rangeSquared_1
	.align 4
rangeSquared_1:
	.long	1103626240
	.globl	range_3
	.align 4
range_3:
	.long	1073741824
	.globl	range_2
	.align 4
range_2:
	.long	1084227584
	.globl	range_1
	.align 4
range_1:
	.long	1084227584
	.globl	maxSpeed
	.align 4
maxSpeed:
	.long	1097859072
	.globl	minSpeed
	.align 4
minSpeed:
	.long	1091567616
	.align 4
.LC0:
	.long	1315859240
	.set	.LC1,.LC5
	.align 8
.LC4:
	.long	1413754136
	.long	1073291771
	.align 8
.LC5:
	.long	1065353216
	.long	1065353216
	.align 8
.LC6:
	.long	2147483647
	.long	2147483647
	.align 8
.LC7:
	.long	-2147483648
	.long	-2147483648
	.align 16
.LC8:
	.long	2147483647
	.long	0
	.long	0
	.long	0
	.align 4
.LC9:
	.long	1086324736
	.align 4
.LC10:
	.long	1091567616
	.align 4
.LC11:
	.long	1103626240
	.align 4
.LC12:
	.long	1082130432
	.align 4
.LC13:
	.long	1073741824
	.align 8
.LC14:
	.long	1008981770
	.long	1008981770
	.align 8
.LC15:
	.long	1025758986
	.long	1025758986
	.align 4
.LC16:
	.long	1097859072
	.align 16
.LC17:
	.long	0
	.long	0
	.long	1112014848
	.long	1112014848
	.set	.LC18,.LC17+8
	.align 4
.LC20:
	.long	1148846080
	.text
.Letext0:
	.file 9 "C:/mingw64/x86_64-w64-mingw32/include/vadefs.h"
	.file 10 "C:/mingw64/x86_64-w64-mingw32/include/corecrt.h"
	.file 11 "C:/mingw64/x86_64-w64-mingw32/include/stdlib.h"
	.file 12 "C:/mingw64/x86_64-w64-mingw32/include/math.h"
	.file 13 "<built-in>"